(dp0
I0
ccollections
OrderedDict
p1
((lp2
(lp3
S'poi'
p4
aI1
aa(lp5
S'age'
p6
aF30.0
aa(lp7
S'sex'
p8
aF2.0
aa(lp9
S'steroid'
p10
aF1.0
aa(lp11
S'antivirals'
p12
aF2.0
aa(lp13
S'fatigue'
p14
aF2.0
aa(lp15
S'malaise'
p16
aF2.0
aa(lp17
S'anorexia'
p18
aF2.0
aa(lp19
S'liver_big'
p20
aF1.0
aa(lp21
S'liver_Firm'
p22
aF2.0
aa(lp23
S'spleen_palpable'
p24
aF2.0
aa(lp25
S'spiders'
p26
aF2.0
aa(lp27
S'ascites'
p28
aF2.0
aa(lp29
S'varices'
p30
aF2.0
aa(lp31
S'bilirubin'
p32
aF1.0
aa(lp33
S'phosphate'
p34
aF85.0
aa(lp35
S'sgot'
p36
aF18.0
aa(lp37
S'albumin'
p38
aF4.0
aa(lp39
S'protime'
p40
aF1.0
aa(lp41
S'histology'
p42
aF1.0
aatp43
Rp44
sI1
g1
((lp45
(lp46
g4
aI1
aa(lp47
g6
aF50.0
aa(lp48
g8
aF1.0
aa(lp49
g10
aF1.0
aa(lp50
g12
aF2.0
aa(lp51
g14
aF1.0
aa(lp52
g16
aF2.0
aa(lp53
g18
aF2.0
aa(lp54
g20
aF1.0
aa(lp55
g22
aF2.0
aa(lp56
g24
aF2.0
aa(lp57
g26
aF2.0
aa(lp58
g28
aF2.0
aa(lp59
g30
aF2.0
aa(lp60
g32
aF0.9
aa(lp61
g34
aF135.0
aa(lp62
g36
aF42.0
aa(lp63
g38
aF3.5
aa(lp64
g40
aF1.0
aa(lp65
g42
aF1.0
aatp66
Rp67
sI2
g1
((lp68
(lp69
g4
aI1
aa(lp70
g6
aF78.0
aa(lp71
g8
aF1.0
aa(lp72
g10
aF2.0
aa(lp73
g12
aF2.0
aa(lp74
g14
aF1.0
aa(lp75
g16
aF2.0
aa(lp76
g18
aF2.0
aa(lp77
g20
aF2.0
aa(lp78
g22
aF2.0
aa(lp79
g24
aF2.0
aa(lp80
g26
aF2.0
aa(lp81
g28
aF2.0
aa(lp82
g30
aF2.0
aa(lp83
g32
aF0.7
aa(lp84
g34
aF96.0
aa(lp85
g36
aF32.0
aa(lp86
g38
aF4.0
aa(lp87
g40
aF1.0
aa(lp88
g42
aF1.0
aatp89
Rp90
sI3
g1
((lp91
(lp92
g4
aI1
aa(lp93
g6
aF31.0
aa(lp94
g8
aF1.0
aa(lp95
g10
aF1.0
aa(lp96
g12
aF1.0
aa(lp97
g14
aF2.0
aa(lp98
g16
aF2.0
aa(lp99
g18
aF2.0
aa(lp100
g20
aF2.0
aa(lp101
g22
aF2.0
aa(lp102
g24
aF2.0
aa(lp103
g26
aF2.0
aa(lp104
g28
aF2.0
aa(lp105
g30
aF2.0
aa(lp106
g32
aF0.7
aa(lp107
g34
aF46.0
aa(lp108
g36
aF52.0
aa(lp109
g38
aF4.0
aa(lp110
g40
aF80.0
aa(lp111
g42
aF1.0
aatp112
Rp113
sI4
g1
((lp114
(lp115
g4
aI1
aa(lp116
g6
aF34.0
aa(lp117
g8
aF1.0
aa(lp118
g10
aF2.0
aa(lp119
g12
aF2.0
aa(lp120
g14
aF2.0
aa(lp121
g16
aF2.0
aa(lp122
g18
aF2.0
aa(lp123
g20
aF2.0
aa(lp124
g22
aF2.0
aa(lp125
g24
aF2.0
aa(lp126
g26
aF2.0
aa(lp127
g28
aF2.0
aa(lp128
g30
aF2.0
aa(lp129
g32
aF1.0
aa(lp130
g34
aF1.0
aa(lp131
g36
aF200.0
aa(lp132
g38
aF4.0
aa(lp133
g40
aF1.0
aa(lp134
g42
aF1.0
aatp135
Rp136
sI5
g1
((lp137
(lp138
g4
aI1
aa(lp139
g6
aF34.0
aa(lp140
g8
aF1.0
aa(lp141
g10
aF2.0
aa(lp142
g12
aF2.0
aa(lp143
g14
aF2.0
aa(lp144
g16
aF2.0
aa(lp145
g18
aF2.0
aa(lp146
g20
aF2.0
aa(lp147
g22
aF2.0
aa(lp148
g24
aF2.0
aa(lp149
g26
aF2.0
aa(lp150
g28
aF2.0
aa(lp151
g30
aF2.0
aa(lp152
g32
aF0.9
aa(lp153
g34
aF95.0
aa(lp154
g36
aF28.0
aa(lp155
g38
aF4.0
aa(lp156
g40
aF75.0
aa(lp157
g42
aF1.0
aatp158
Rp159
sI6
g1
((lp160
(lp161
g4
aI0
aa(lp162
g6
aF51.0
aa(lp163
g8
aF1.0
aa(lp164
g10
aF1.0
aa(lp165
g12
aF2.0
aa(lp166
g14
aF1.0
aa(lp167
g16
aF2.0
aa(lp168
g18
aF1.0
aa(lp169
g20
aF2.0
aa(lp170
g22
aF2.0
aa(lp171
g24
aF1.0
aa(lp172
g26
aF1.0
aa(lp173
g28
aF2.0
aa(lp174
g30
aF2.0
aa(lp175
g32
aF1.0
aa(lp176
g34
aF1.0
aa(lp177
g36
aF1.0
aa(lp178
g38
aF1.0
aa(lp179
g40
aF1.0
aa(lp180
g42
aF1.0
aatp181
Rp182
sI7
g1
((lp183
(lp184
g4
aI1
aa(lp185
g6
aF23.0
aa(lp186
g8
aF1.0
aa(lp187
g10
aF2.0
aa(lp188
g12
aF2.0
aa(lp189
g14
aF2.0
aa(lp190
g16
aF2.0
aa(lp191
g18
aF2.0
aa(lp192
g20
aF2.0
aa(lp193
g22
aF2.0
aa(lp194
g24
aF2.0
aa(lp195
g26
aF2.0
aa(lp196
g28
aF2.0
aa(lp197
g30
aF2.0
aa(lp198
g32
aF1.0
aa(lp199
g34
aF1.0
aa(lp200
g36
aF1.0
aa(lp201
g38
aF1.0
aa(lp202
g40
aF1.0
aa(lp203
g42
aF1.0
aatp204
Rp205
sI8
g1
((lp206
(lp207
g4
aI1
aa(lp208
g6
aF39.0
aa(lp209
g8
aF1.0
aa(lp210
g10
aF2.0
aa(lp211
g12
aF2.0
aa(lp212
g14
aF1.0
aa(lp213
g16
aF2.0
aa(lp214
g18
aF2.0
aa(lp215
g20
aF2.0
aa(lp216
g22
aF1.0
aa(lp217
g24
aF2.0
aa(lp218
g26
aF2.0
aa(lp219
g28
aF2.0
aa(lp220
g30
aF2.0
aa(lp221
g32
aF0.7
aa(lp222
g34
aF1.0
aa(lp223
g36
aF48.0
aa(lp224
g38
aF4.4
aa(lp225
g40
aF1.0
aa(lp226
g42
aF1.0
aatp227
Rp228
sI9
g1
((lp229
(lp230
g4
aI1
aa(lp231
g6
aF30.0
aa(lp232
g8
aF1.0
aa(lp233
g10
aF2.0
aa(lp234
g12
aF2.0
aa(lp235
g14
aF2.0
aa(lp236
g16
aF2.0
aa(lp237
g18
aF2.0
aa(lp238
g20
aF2.0
aa(lp239
g22
aF2.0
aa(lp240
g24
aF2.0
aa(lp241
g26
aF2.0
aa(lp242
g28
aF2.0
aa(lp243
g30
aF2.0
aa(lp244
g32
aF1.0
aa(lp245
g34
aF1.0
aa(lp246
g36
aF120.0
aa(lp247
g38
aF3.9
aa(lp248
g40
aF1.0
aa(lp249
g42
aF1.0
aatp250
Rp251
sI10
g1
((lp252
(lp253
g4
aI1
aa(lp254
g6
aF39.0
aa(lp255
g8
aF1.0
aa(lp256
g10
aF1.0
aa(lp257
g12
aF1.0
aa(lp258
g14
aF2.0
aa(lp259
g16
aF2.0
aa(lp260
g18
aF2.0
aa(lp261
g20
aF1.0
aa(lp262
g22
aF1.0
aa(lp263
g24
aF2.0
aa(lp264
g26
aF2.0
aa(lp265
g28
aF2.0
aa(lp266
g30
aF2.0
aa(lp267
g32
aF1.3
aa(lp268
g34
aF78.0
aa(lp269
g36
aF30.0
aa(lp270
g38
aF4.4
aa(lp271
g40
aF85.0
aa(lp272
g42
aF1.0
aatp273
Rp274
sI11
g1
((lp275
(lp276
g4
aI1
aa(lp277
g6
aF32.0
aa(lp278
g8
aF1.0
aa(lp279
g10
aF2.0
aa(lp280
g12
aF1.0
aa(lp281
g14
aF1.0
aa(lp282
g16
aF2.0
aa(lp283
g18
aF2.0
aa(lp284
g20
aF2.0
aa(lp285
g22
aF1.0
aa(lp286
g24
aF2.0
aa(lp287
g26
aF1.0
aa(lp288
g28
aF2.0
aa(lp289
g30
aF2.0
aa(lp290
g32
aF1.0
aa(lp291
g34
aF59.0
aa(lp292
g36
aF249.0
aa(lp293
g38
aF3.7
aa(lp294
g40
aF54.0
aa(lp295
g42
aF1.0
aatp296
Rp297
sI12
g1
((lp298
(lp299
g4
aI1
aa(lp300
g6
aF41.0
aa(lp301
g8
aF1.0
aa(lp302
g10
aF2.0
aa(lp303
g12
aF1.0
aa(lp304
g14
aF1.0
aa(lp305
g16
aF2.0
aa(lp306
g18
aF2.0
aa(lp307
g20
aF2.0
aa(lp308
g22
aF1.0
aa(lp309
g24
aF2.0
aa(lp310
g26
aF2.0
aa(lp311
g28
aF2.0
aa(lp312
g30
aF2.0
aa(lp313
g32
aF0.9
aa(lp314
g34
aF81.0
aa(lp315
g36
aF60.0
aa(lp316
g38
aF3.9
aa(lp317
g40
aF52.0
aa(lp318
g42
aF1.0
aatp319
Rp320
sI13
g1
((lp321
(lp322
g4
aI1
aa(lp323
g6
aF30.0
aa(lp324
g8
aF1.0
aa(lp325
g10
aF2.0
aa(lp326
g12
aF2.0
aa(lp327
g14
aF1.0
aa(lp328
g16
aF2.0
aa(lp329
g18
aF2.0
aa(lp330
g20
aF2.0
aa(lp331
g22
aF1.0
aa(lp332
g24
aF2.0
aa(lp333
g26
aF2.0
aa(lp334
g28
aF2.0
aa(lp335
g30
aF2.0
aa(lp336
g32
aF2.2
aa(lp337
g34
aF57.0
aa(lp338
g36
aF144.0
aa(lp339
g38
aF4.9
aa(lp340
g40
aF78.0
aa(lp341
g42
aF1.0
aatp342
Rp343
sI14
g1
((lp344
(lp345
g4
aI1
aa(lp346
g6
aF47.0
aa(lp347
g8
aF1.0
aa(lp348
g10
aF1.0
aa(lp349
g12
aF1.0
aa(lp350
g14
aF2.0
aa(lp351
g16
aF2.0
aa(lp352
g18
aF2.0
aa(lp353
g20
aF2.0
aa(lp354
g22
aF2.0
aa(lp355
g24
aF2.0
aa(lp356
g26
aF2.0
aa(lp357
g28
aF2.0
aa(lp358
g30
aF2.0
aa(lp359
g32
aF1.0
aa(lp360
g34
aF1.0
aa(lp361
g36
aF60.0
aa(lp362
g38
aF1.0
aa(lp363
g40
aF1.0
aa(lp364
g42
aF1.0
aatp365
Rp366
sI15
g1
((lp367
(lp368
g4
aI1
aa(lp369
g6
aF38.0
aa(lp370
g8
aF1.0
aa(lp371
g10
aF1.0
aa(lp372
g12
aF2.0
aa(lp373
g14
aF1.0
aa(lp374
g16
aF1.0
aa(lp375
g18
aF1.0
aa(lp376
g20
aF2.0
aa(lp377
g22
aF2.0
aa(lp378
g24
aF2.0
aa(lp379
g26
aF2.0
aa(lp380
g28
aF1.0
aa(lp381
g30
aF2.0
aa(lp382
g32
aF2.0
aa(lp383
g34
aF72.0
aa(lp384
g36
aF89.0
aa(lp385
g38
aF2.9
aa(lp386
g40
aF46.0
aa(lp387
g42
aF1.0
aatp388
Rp389
sI16
g1
((lp390
(lp391
g4
aI1
aa(lp392
g6
aF66.0
aa(lp393
g8
aF1.0
aa(lp394
g10
aF2.0
aa(lp395
g12
aF2.0
aa(lp396
g14
aF1.0
aa(lp397
g16
aF2.0
aa(lp398
g18
aF2.0
aa(lp399
g20
aF2.0
aa(lp400
g22
aF2.0
aa(lp401
g24
aF2.0
aa(lp402
g26
aF2.0
aa(lp403
g28
aF2.0
aa(lp404
g30
aF2.0
aa(lp405
g32
aF1.2
aa(lp406
g34
aF102.0
aa(lp407
g36
aF53.0
aa(lp408
g38
aF4.3
aa(lp409
g40
aF1.0
aa(lp410
g42
aF1.0
aatp411
Rp412
sI17
g1
((lp413
(lp414
g4
aI1
aa(lp415
g6
aF40.0
aa(lp416
g8
aF1.0
aa(lp417
g10
aF1.0
aa(lp418
g12
aF2.0
aa(lp419
g14
aF1.0
aa(lp420
g16
aF2.0
aa(lp421
g18
aF2.0
aa(lp422
g20
aF2.0
aa(lp423
g22
aF1.0
aa(lp424
g24
aF2.0
aa(lp425
g26
aF2.0
aa(lp426
g28
aF2.0
aa(lp427
g30
aF2.0
aa(lp428
g32
aF0.6
aa(lp429
g34
aF62.0
aa(lp430
g36
aF166.0
aa(lp431
g38
aF4.0
aa(lp432
g40
aF63.0
aa(lp433
g42
aF1.0
aatp434
Rp435
sI18
g1
((lp436
(lp437
g4
aI1
aa(lp438
g6
aF38.0
aa(lp439
g8
aF1.0
aa(lp440
g10
aF2.0
aa(lp441
g12
aF2.0
aa(lp442
g14
aF2.0
aa(lp443
g16
aF2.0
aa(lp444
g18
aF2.0
aa(lp445
g20
aF2.0
aa(lp446
g22
aF2.0
aa(lp447
g24
aF2.0
aa(lp448
g26
aF2.0
aa(lp449
g28
aF2.0
aa(lp450
g30
aF2.0
aa(lp451
g32
aF0.7
aa(lp452
g34
aF53.0
aa(lp453
g36
aF42.0
aa(lp454
g38
aF4.1
aa(lp455
g40
aF85.0
aa(lp456
g42
aF2.0
aatp457
Rp458
sI19
g1
((lp459
(lp460
g4
aI1
aa(lp461
g6
aF38.0
aa(lp462
g8
aF1.0
aa(lp463
g10
aF1.0
aa(lp464
g12
aF1.0
aa(lp465
g14
aF2.0
aa(lp466
g16
aF2.0
aa(lp467
g18
aF2.0
aa(lp468
g20
aF1.0
aa(lp469
g22
aF1.0
aa(lp470
g24
aF2.0
aa(lp471
g26
aF2.0
aa(lp472
g28
aF2.0
aa(lp473
g30
aF2.0
aa(lp474
g32
aF0.7
aa(lp475
g34
aF70.0
aa(lp476
g36
aF28.0
aa(lp477
g38
aF4.2
aa(lp478
g40
aF62.0
aa(lp479
g42
aF1.0
aatp480
Rp481
sI20
g1
((lp482
(lp483
g4
aI1
aa(lp484
g6
aF22.0
aa(lp485
g8
aF2.0
aa(lp486
g10
aF2.0
aa(lp487
g12
aF1.0
aa(lp488
g14
aF1.0
aa(lp489
g16
aF2.0
aa(lp490
g18
aF2.0
aa(lp491
g20
aF2.0
aa(lp492
g22
aF2.0
aa(lp493
g24
aF2.0
aa(lp494
g26
aF2.0
aa(lp495
g28
aF2.0
aa(lp496
g30
aF2.0
aa(lp497
g32
aF0.9
aa(lp498
g34
aF48.0
aa(lp499
g36
aF20.0
aa(lp500
g38
aF4.2
aa(lp501
g40
aF64.0
aa(lp502
g42
aF1.0
aatp503
Rp504
sI21
g1
((lp505
(lp506
g4
aI1
aa(lp507
g6
aF27.0
aa(lp508
g8
aF1.0
aa(lp509
g10
aF2.0
aa(lp510
g12
aF2.0
aa(lp511
g14
aF1.0
aa(lp512
g16
aF1.0
aa(lp513
g18
aF1.0
aa(lp514
g20
aF1.0
aa(lp515
g22
aF1.0
aa(lp516
g24
aF1.0
aa(lp517
g26
aF1.0
aa(lp518
g28
aF2.0
aa(lp519
g30
aF2.0
aa(lp520
g32
aF1.2
aa(lp521
g34
aF133.0
aa(lp522
g36
aF98.0
aa(lp523
g38
aF4.1
aa(lp524
g40
aF39.0
aa(lp525
g42
aF1.0
aatp526
Rp527
sI22
g1
((lp528
(lp529
g4
aI1
aa(lp530
g6
aF31.0
aa(lp531
g8
aF1.0
aa(lp532
g10
aF2.0
aa(lp533
g12
aF2.0
aa(lp534
g14
aF2.0
aa(lp535
g16
aF2.0
aa(lp536
g18
aF2.0
aa(lp537
g20
aF2.0
aa(lp538
g22
aF2.0
aa(lp539
g24
aF2.0
aa(lp540
g26
aF2.0
aa(lp541
g28
aF2.0
aa(lp542
g30
aF2.0
aa(lp543
g32
aF1.0
aa(lp544
g34
aF85.0
aa(lp545
g36
aF20.0
aa(lp546
g38
aF4.0
aa(lp547
g40
aF100.0
aa(lp548
g42
aF1.0
aatp549
Rp550
sI23
g1
((lp551
(lp552
g4
aI1
aa(lp553
g6
aF42.0
aa(lp554
g8
aF1.0
aa(lp555
g10
aF2.0
aa(lp556
g12
aF2.0
aa(lp557
g14
aF2.0
aa(lp558
g16
aF2.0
aa(lp559
g18
aF2.0
aa(lp560
g20
aF2.0
aa(lp561
g22
aF2.0
aa(lp562
g24
aF2.0
aa(lp563
g26
aF2.0
aa(lp564
g28
aF2.0
aa(lp565
g30
aF2.0
aa(lp566
g32
aF0.9
aa(lp567
g34
aF60.0
aa(lp568
g36
aF63.0
aa(lp569
g38
aF4.7
aa(lp570
g40
aF47.0
aa(lp571
g42
aF1.0
aatp572
Rp573
sI24
g1
((lp574
(lp575
g4
aI1
aa(lp576
g6
aF25.0
aa(lp577
g8
aF2.0
aa(lp578
g10
aF1.0
aa(lp579
g12
aF1.0
aa(lp580
g14
aF2.0
aa(lp581
g16
aF2.0
aa(lp582
g18
aF2.0
aa(lp583
g20
aF2.0
aa(lp584
g22
aF2.0
aa(lp585
g24
aF2.0
aa(lp586
g26
aF2.0
aa(lp587
g28
aF2.0
aa(lp588
g30
aF2.0
aa(lp589
g32
aF0.4
aa(lp590
g34
aF45.0
aa(lp591
g36
aF18.0
aa(lp592
g38
aF4.3
aa(lp593
g40
aF70.0
aa(lp594
g42
aF1.0
aatp595
Rp596
sI25
g1
((lp597
(lp598
g4
aI1
aa(lp599
g6
aF27.0
aa(lp600
g8
aF1.0
aa(lp601
g10
aF1.0
aa(lp602
g12
aF2.0
aa(lp603
g14
aF1.0
aa(lp604
g16
aF1.0
aa(lp605
g18
aF2.0
aa(lp606
g20
aF2.0
aa(lp607
g22
aF2.0
aa(lp608
g24
aF2.0
aa(lp609
g26
aF2.0
aa(lp610
g28
aF2.0
aa(lp611
g30
aF2.0
aa(lp612
g32
aF0.8
aa(lp613
g34
aF95.0
aa(lp614
g36
aF46.0
aa(lp615
g38
aF3.8
aa(lp616
g40
aF100.0
aa(lp617
g42
aF1.0
aatp618
Rp619
sI26
g1
((lp620
(lp621
g4
aI1
aa(lp622
g6
aF49.0
aa(lp623
g8
aF1.0
aa(lp624
g10
aF1.0
aa(lp625
g12
aF1.0
aa(lp626
g14
aF1.0
aa(lp627
g16
aF1.0
aa(lp628
g18
aF1.0
aa(lp629
g20
aF2.0
aa(lp630
g22
aF1.0
aa(lp631
g24
aF2.0
aa(lp632
g26
aF1.0
aa(lp633
g28
aF2.0
aa(lp634
g30
aF2.0
aa(lp635
g32
aF0.6
aa(lp636
g34
aF85.0
aa(lp637
g36
aF48.0
aa(lp638
g38
aF3.7
aa(lp639
g40
aF1.0
aa(lp640
g42
aF1.0
aatp641
Rp642
sI27
g1
((lp643
(lp644
g4
aI1
aa(lp645
g6
aF58.0
aa(lp646
g8
aF2.0
aa(lp647
g10
aF2.0
aa(lp648
g12
aF2.0
aa(lp649
g14
aF1.0
aa(lp650
g16
aF2.0
aa(lp651
g18
aF2.0
aa(lp652
g20
aF2.0
aa(lp653
g22
aF1.0
aa(lp654
g24
aF2.0
aa(lp655
g26
aF1.0
aa(lp656
g28
aF2.0
aa(lp657
g30
aF2.0
aa(lp658
g32
aF1.4
aa(lp659
g34
aF175.0
aa(lp660
g36
aF55.0
aa(lp661
g38
aF2.7
aa(lp662
g40
aF36.0
aa(lp663
g42
aF1.0
aatp664
Rp665
sI28
g1
((lp666
(lp667
g4
aI1
aa(lp668
g6
aF61.0
aa(lp669
g8
aF1.0
aa(lp670
g10
aF1.0
aa(lp671
g12
aF2.0
aa(lp672
g14
aF1.0
aa(lp673
g16
aF2.0
aa(lp674
g18
aF2.0
aa(lp675
g20
aF1.0
aa(lp676
g22
aF1.0
aa(lp677
g24
aF2.0
aa(lp678
g26
aF2.0
aa(lp679
g28
aF2.0
aa(lp680
g30
aF2.0
aa(lp681
g32
aF1.3
aa(lp682
g34
aF78.0
aa(lp683
g36
aF25.0
aa(lp684
g38
aF3.8
aa(lp685
g40
aF100.0
aa(lp686
g42
aF1.0
aatp687
Rp688
sI29
g1
((lp689
(lp690
g4
aI1
aa(lp691
g6
aF51.0
aa(lp692
g8
aF1.0
aa(lp693
g10
aF1.0
aa(lp694
g12
aF1.0
aa(lp695
g14
aF1.0
aa(lp696
g16
aF1.0
aa(lp697
g18
aF2.0
aa(lp698
g20
aF2.0
aa(lp699
g22
aF2.0
aa(lp700
g24
aF2.0
aa(lp701
g26
aF2.0
aa(lp702
g28
aF2.0
aa(lp703
g30
aF2.0
aa(lp704
g32
aF1.0
aa(lp705
g34
aF78.0
aa(lp706
g36
aF58.0
aa(lp707
g38
aF4.6
aa(lp708
g40
aF52.0
aa(lp709
g42
aF1.0
aatp710
Rp711
sI30
g1
((lp712
(lp713
g4
aI0
aa(lp714
g6
aF39.0
aa(lp715
g8
aF1.0
aa(lp716
g10
aF1.0
aa(lp717
g12
aF1.0
aa(lp718
g14
aF1.0
aa(lp719
g16
aF1.0
aa(lp720
g18
aF2.0
aa(lp721
g20
aF2.0
aa(lp722
g22
aF1.0
aa(lp723
g24
aF2.0
aa(lp724
g26
aF2.0
aa(lp725
g28
aF2.0
aa(lp726
g30
aF2.0
aa(lp727
g32
aF2.3
aa(lp728
g34
aF280.0
aa(lp729
g36
aF98.0
aa(lp730
g38
aF3.8
aa(lp731
g40
aF40.0
aa(lp732
g42
aF1.0
aatp733
Rp734
sI31
g1
((lp735
(lp736
g4
aI0
aa(lp737
g6
aF62.0
aa(lp738
g8
aF1.0
aa(lp739
g10
aF1.0
aa(lp740
g12
aF2.0
aa(lp741
g14
aF1.0
aa(lp742
g16
aF1.0
aa(lp743
g18
aF2.0
aa(lp744
g20
aF1.0
aa(lp745
g22
aF1.0
aa(lp746
g24
aF2.0
aa(lp747
g26
aF2.0
aa(lp748
g28
aF2.0
aa(lp749
g30
aF2.0
aa(lp750
g32
aF1.0
aa(lp751
g34
aF1.0
aa(lp752
g36
aF60.0
aa(lp753
g38
aF1.0
aa(lp754
g40
aF1.0
aa(lp755
g42
aF1.0
aatp756
Rp757
sI32
g1
((lp758
(lp759
g4
aI1
aa(lp760
g6
aF41.0
aa(lp761
g8
aF2.0
aa(lp762
g10
aF2.0
aa(lp763
g12
aF1.0
aa(lp764
g14
aF1.0
aa(lp765
g16
aF1.0
aa(lp766
g18
aF1.0
aa(lp767
g20
aF2.0
aa(lp768
g22
aF2.0
aa(lp769
g24
aF2.0
aa(lp770
g26
aF2.0
aa(lp771
g28
aF2.0
aa(lp772
g30
aF2.0
aa(lp773
g32
aF0.7
aa(lp774
g34
aF81.0
aa(lp775
g36
aF53.0
aa(lp776
g38
aF5.0
aa(lp777
g40
aF74.0
aa(lp778
g42
aF1.0
aatp779
Rp780
sI33
g1
((lp781
(lp782
g4
aI1
aa(lp783
g6
aF26.0
aa(lp784
g8
aF2.0
aa(lp785
g10
aF1.0
aa(lp786
g12
aF2.0
aa(lp787
g14
aF2.0
aa(lp788
g16
aF2.0
aa(lp789
g18
aF2.0
aa(lp790
g20
aF2.0
aa(lp791
g22
aF1.0
aa(lp792
g24
aF2.0
aa(lp793
g26
aF2.0
aa(lp794
g28
aF2.0
aa(lp795
g30
aF2.0
aa(lp796
g32
aF0.5
aa(lp797
g34
aF135.0
aa(lp798
g36
aF29.0
aa(lp799
g38
aF3.8
aa(lp800
g40
aF60.0
aa(lp801
g42
aF1.0
aatp802
Rp803
sI34
g1
((lp804
(lp805
g4
aI1
aa(lp806
g6
aF35.0
aa(lp807
g8
aF1.0
aa(lp808
g10
aF2.0
aa(lp809
g12
aF2.0
aa(lp810
g14
aF1.0
aa(lp811
g16
aF2.0
aa(lp812
g18
aF2.0
aa(lp813
g20
aF2.0
aa(lp814
g22
aF2.0
aa(lp815
g24
aF2.0
aa(lp816
g26
aF2.0
aa(lp817
g28
aF2.0
aa(lp818
g30
aF2.0
aa(lp819
g32
aF0.9
aa(lp820
g34
aF58.0
aa(lp821
g36
aF92.0
aa(lp822
g38
aF4.3
aa(lp823
g40
aF73.0
aa(lp824
g42
aF1.0
aatp825
Rp826
sI35
g1
((lp827
(lp828
g4
aI0
aa(lp829
g6
aF37.0
aa(lp830
g8
aF1.0
aa(lp831
g10
aF2.0
aa(lp832
g12
aF2.0
aa(lp833
g14
aF1.0
aa(lp834
g16
aF2.0
aa(lp835
g18
aF2.0
aa(lp836
g20
aF2.0
aa(lp837
g22
aF2.0
aa(lp838
g24
aF2.0
aa(lp839
g26
aF1.0
aa(lp840
g28
aF2.0
aa(lp841
g30
aF2.0
aa(lp842
g32
aF0.6
aa(lp843
g34
aF67.0
aa(lp844
g36
aF28.0
aa(lp845
g38
aF4.2
aa(lp846
g40
aF1.0
aa(lp847
g42
aF1.0
aatp848
Rp849
sI36
g1
((lp850
(lp851
g4
aI1
aa(lp852
g6
aF23.0
aa(lp853
g8
aF1.0
aa(lp854
g10
aF2.0
aa(lp855
g12
aF2.0
aa(lp856
g14
aF1.0
aa(lp857
g16
aF1.0
aa(lp858
g18
aF1.0
aa(lp859
g20
aF2.0
aa(lp860
g22
aF2.0
aa(lp861
g24
aF1.0
aa(lp862
g26
aF2.0
aa(lp863
g28
aF2.0
aa(lp864
g30
aF2.0
aa(lp865
g32
aF1.3
aa(lp866
g34
aF194.0
aa(lp867
g36
aF150.0
aa(lp868
g38
aF4.1
aa(lp869
g40
aF90.0
aa(lp870
g42
aF1.0
aatp871
Rp872
sI37
g1
((lp873
(lp874
g4
aI1
aa(lp875
g6
aF20.0
aa(lp876
g8
aF2.0
aa(lp877
g10
aF1.0
aa(lp878
g12
aF2.0
aa(lp879
g14
aF1.0
aa(lp880
g16
aF1.0
aa(lp881
g18
aF1.0
aa(lp882
g20
aF1.0
aa(lp883
g22
aF1.0
aa(lp884
g24
aF1.0
aa(lp885
g26
aF1.0
aa(lp886
g28
aF2.0
aa(lp887
g30
aF2.0
aa(lp888
g32
aF2.3
aa(lp889
g34
aF150.0
aa(lp890
g36
aF68.0
aa(lp891
g38
aF3.9
aa(lp892
g40
aF1.0
aa(lp893
g42
aF1.0
aatp894
Rp895
sI38
g1
((lp896
(lp897
g4
aI1
aa(lp898
g6
aF42.0
aa(lp899
g8
aF1.0
aa(lp900
g10
aF1.0
aa(lp901
g12
aF2.0
aa(lp902
g14
aF2.0
aa(lp903
g16
aF2.0
aa(lp904
g18
aF2.0
aa(lp905
g20
aF2.0
aa(lp906
g22
aF2.0
aa(lp907
g24
aF2.0
aa(lp908
g26
aF2.0
aa(lp909
g28
aF2.0
aa(lp910
g30
aF2.0
aa(lp911
g32
aF1.0
aa(lp912
g34
aF85.0
aa(lp913
g36
aF14.0
aa(lp914
g38
aF4.0
aa(lp915
g40
aF100.0
aa(lp916
g42
aF1.0
aatp917
Rp918
sI39
g1
((lp919
(lp920
g4
aI1
aa(lp921
g6
aF65.0
aa(lp922
g8
aF1.0
aa(lp923
g10
aF2.0
aa(lp924
g12
aF2.0
aa(lp925
g14
aF1.0
aa(lp926
g16
aF1.0
aa(lp927
g18
aF2.0
aa(lp928
g20
aF2.0
aa(lp929
g22
aF1.0
aa(lp930
g24
aF1.0
aa(lp931
g26
aF1.0
aa(lp932
g28
aF1.0
aa(lp933
g30
aF2.0
aa(lp934
g32
aF0.3
aa(lp935
g34
aF180.0
aa(lp936
g36
aF53.0
aa(lp937
g38
aF2.9
aa(lp938
g40
aF74.0
aa(lp939
g42
aF2.0
aatp940
Rp941
sI40
g1
((lp942
(lp943
g4
aI1
aa(lp944
g6
aF52.0
aa(lp945
g8
aF1.0
aa(lp946
g10
aF1.0
aa(lp947
g12
aF1.0
aa(lp948
g14
aF2.0
aa(lp949
g16
aF2.0
aa(lp950
g18
aF2.0
aa(lp951
g20
aF2.0
aa(lp952
g22
aF2.0
aa(lp953
g24
aF2.0
aa(lp954
g26
aF2.0
aa(lp955
g28
aF2.0
aa(lp956
g30
aF2.0
aa(lp957
g32
aF0.7
aa(lp958
g34
aF75.0
aa(lp959
g36
aF55.0
aa(lp960
g38
aF4.0
aa(lp961
g40
aF21.0
aa(lp962
g42
aF1.0
aatp963
Rp964
sI41
g1
((lp965
(lp966
g4
aI1
aa(lp967
g6
aF23.0
aa(lp968
g8
aF1.0
aa(lp969
g10
aF2.0
aa(lp970
g12
aF2.0
aa(lp971
g14
aF2.0
aa(lp972
g16
aF2.0
aa(lp973
g18
aF2.0
aa(lp974
g20
aF1.0
aa(lp975
g22
aF1.0
aa(lp976
g24
aF1.0
aa(lp977
g26
aF1.0
aa(lp978
g28
aF1.0
aa(lp979
g30
aF1.0
aa(lp980
g32
aF4.6
aa(lp981
g34
aF56.0
aa(lp982
g36
aF16.0
aa(lp983
g38
aF4.6
aa(lp984
g40
aF1.0
aa(lp985
g42
aF1.0
aatp986
Rp987
sI42
g1
((lp988
(lp989
g4
aI1
aa(lp990
g6
aF33.0
aa(lp991
g8
aF1.0
aa(lp992
g10
aF2.0
aa(lp993
g12
aF2.0
aa(lp994
g14
aF2.0
aa(lp995
g16
aF2.0
aa(lp996
g18
aF2.0
aa(lp997
g20
aF2.0
aa(lp998
g22
aF2.0
aa(lp999
g24
aF2.0
aa(lp1000
g26
aF2.0
aa(lp1001
g28
aF2.0
aa(lp1002
g30
aF2.0
aa(lp1003
g32
aF1.0
aa(lp1004
g34
aF46.0
aa(lp1005
g36
aF90.0
aa(lp1006
g38
aF4.4
aa(lp1007
g40
aF60.0
aa(lp1008
g42
aF1.0
aatp1009
Rp1010
sI43
g1
((lp1011
(lp1012
g4
aI1
aa(lp1013
g6
aF56.0
aa(lp1014
g8
aF1.0
aa(lp1015
g10
aF1.0
aa(lp1016
g12
aF2.0
aa(lp1017
g14
aF1.0
aa(lp1018
g16
aF2.0
aa(lp1019
g18
aF2.0
aa(lp1020
g20
aF2.0
aa(lp1021
g22
aF2.0
aa(lp1022
g24
aF2.0
aa(lp1023
g26
aF2.0
aa(lp1024
g28
aF2.0
aa(lp1025
g30
aF2.0
aa(lp1026
g32
aF0.7
aa(lp1027
g34
aF71.0
aa(lp1028
g36
aF18.0
aa(lp1029
g38
aF4.4
aa(lp1030
g40
aF100.0
aa(lp1031
g42
aF1.0
aatp1032
Rp1033
sI44
g1
((lp1034
(lp1035
g4
aI1
aa(lp1036
g6
aF34.0
aa(lp1037
g8
aF1.0
aa(lp1038
g10
aF2.0
aa(lp1039
g12
aF2.0
aa(lp1040
g14
aF2.0
aa(lp1041
g16
aF2.0
aa(lp1042
g18
aF2.0
aa(lp1043
g20
aF2.0
aa(lp1044
g22
aF2.0
aa(lp1045
g24
aF2.0
aa(lp1046
g26
aF2.0
aa(lp1047
g28
aF2.0
aa(lp1048
g30
aF2.0
aa(lp1049
g32
aF1.0
aa(lp1050
g34
aF1.0
aa(lp1051
g36
aF86.0
aa(lp1052
g38
aF1.0
aa(lp1053
g40
aF1.0
aa(lp1054
g42
aF1.0
aatp1055
Rp1056
sI45
g1
((lp1057
(lp1058
g4
aI1
aa(lp1059
g6
aF28.0
aa(lp1060
g8
aF1.0
aa(lp1061
g10
aF2.0
aa(lp1062
g12
aF2.0
aa(lp1063
g14
aF1.0
aa(lp1064
g16
aF1.0
aa(lp1065
g18
aF2.0
aa(lp1066
g20
aF2.0
aa(lp1067
g22
aF2.0
aa(lp1068
g24
aF2.0
aa(lp1069
g26
aF2.0
aa(lp1070
g28
aF2.0
aa(lp1071
g30
aF2.0
aa(lp1072
g32
aF0.7
aa(lp1073
g34
aF74.0
aa(lp1074
g36
aF110.0
aa(lp1075
g38
aF4.4
aa(lp1076
g40
aF1.0
aa(lp1077
g42
aF1.0
aatp1078
Rp1079
sI46
g1
((lp1080
(lp1081
g4
aI1
aa(lp1082
g6
aF37.0
aa(lp1083
g8
aF1.0
aa(lp1084
g10
aF1.0
aa(lp1085
g12
aF2.0
aa(lp1086
g14
aF2.0
aa(lp1087
g16
aF2.0
aa(lp1088
g18
aF2.0
aa(lp1089
g20
aF2.0
aa(lp1090
g22
aF1.0
aa(lp1091
g24
aF2.0
aa(lp1092
g26
aF1.0
aa(lp1093
g28
aF2.0
aa(lp1094
g30
aF2.0
aa(lp1095
g32
aF0.6
aa(lp1096
g34
aF80.0
aa(lp1097
g36
aF80.0
aa(lp1098
g38
aF3.8
aa(lp1099
g40
aF1.0
aa(lp1100
g42
aF1.0
aatp1101
Rp1102
sI47
g1
((lp1103
(lp1104
g4
aI1
aa(lp1105
g6
aF28.0
aa(lp1106
g8
aF2.0
aa(lp1107
g10
aF2.0
aa(lp1108
g12
aF2.0
aa(lp1109
g14
aF1.0
aa(lp1110
g16
aF1.0
aa(lp1111
g18
aF2.0
aa(lp1112
g20
aF2.0
aa(lp1113
g22
aF1.0
aa(lp1114
g24
aF2.0
aa(lp1115
g26
aF2.0
aa(lp1116
g28
aF2.0
aa(lp1117
g30
aF2.0
aa(lp1118
g32
aF1.8
aa(lp1119
g34
aF191.0
aa(lp1120
g36
aF420.0
aa(lp1121
g38
aF3.3
aa(lp1122
g40
aF46.0
aa(lp1123
g42
aF1.0
aatp1124
Rp1125
sI48
g1
((lp1126
(lp1127
g4
aI1
aa(lp1128
g6
aF36.0
aa(lp1129
g8
aF1.0
aa(lp1130
g10
aF1.0
aa(lp1131
g12
aF2.0
aa(lp1132
g14
aF2.0
aa(lp1133
g16
aF2.0
aa(lp1134
g18
aF2.0
aa(lp1135
g20
aF2.0
aa(lp1136
g22
aF2.0
aa(lp1137
g24
aF1.0
aa(lp1138
g26
aF2.0
aa(lp1139
g28
aF2.0
aa(lp1140
g30
aF2.0
aa(lp1141
g32
aF0.8
aa(lp1142
g34
aF85.0
aa(lp1143
g36
aF44.0
aa(lp1144
g38
aF4.2
aa(lp1145
g40
aF85.0
aa(lp1146
g42
aF1.0
aatp1147
Rp1148
sI49
g1
((lp1149
(lp1150
g4
aI1
aa(lp1151
g6
aF38.0
aa(lp1152
g8
aF1.0
aa(lp1153
g10
aF2.0
aa(lp1154
g12
aF1.0
aa(lp1155
g14
aF1.0
aa(lp1156
g16
aF1.0
aa(lp1157
g18
aF1.0
aa(lp1158
g20
aF2.0
aa(lp1159
g22
aF2.0
aa(lp1160
g24
aF2.0
aa(lp1161
g26
aF1.0
aa(lp1162
g28
aF2.0
aa(lp1163
g30
aF2.0
aa(lp1164
g32
aF0.7
aa(lp1165
g34
aF125.0
aa(lp1166
g36
aF65.0
aa(lp1167
g38
aF4.2
aa(lp1168
g40
aF77.0
aa(lp1169
g42
aF1.0
aatp1170
Rp1171
sI50
g1
((lp1172
(lp1173
g4
aI1
aa(lp1174
g6
aF39.0
aa(lp1175
g8
aF1.0
aa(lp1176
g10
aF1.0
aa(lp1177
g12
aF2.0
aa(lp1178
g14
aF2.0
aa(lp1179
g16
aF2.0
aa(lp1180
g18
aF2.0
aa(lp1181
g20
aF2.0
aa(lp1182
g22
aF2.0
aa(lp1183
g24
aF2.0
aa(lp1184
g26
aF2.0
aa(lp1185
g28
aF2.0
aa(lp1186
g30
aF2.0
aa(lp1187
g32
aF0.9
aa(lp1188
g34
aF85.0
aa(lp1189
g36
aF60.0
aa(lp1190
g38
aF4.0
aa(lp1191
g40
aF1.0
aa(lp1192
g42
aF1.0
aatp1193
Rp1194
sI51
g1
((lp1195
(lp1196
g4
aI1
aa(lp1197
g6
aF39.0
aa(lp1198
g8
aF1.0
aa(lp1199
g10
aF2.0
aa(lp1200
g12
aF2.0
aa(lp1201
g14
aF2.0
aa(lp1202
g16
aF2.0
aa(lp1203
g18
aF2.0
aa(lp1204
g20
aF2.0
aa(lp1205
g22
aF2.0
aa(lp1206
g24
aF2.0
aa(lp1207
g26
aF2.0
aa(lp1208
g28
aF2.0
aa(lp1209
g30
aF2.0
aa(lp1210
g32
aF1.0
aa(lp1211
g34
aF85.0
aa(lp1212
g36
aF20.0
aa(lp1213
g38
aF4.0
aa(lp1214
g40
aF1.0
aa(lp1215
g42
aF1.0
aatp1216
Rp1217
sI52
g1
((lp1218
(lp1219
g4
aI1
aa(lp1220
g6
aF44.0
aa(lp1221
g8
aF1.0
aa(lp1222
g10
aF2.0
aa(lp1223
g12
aF2.0
aa(lp1224
g14
aF2.0
aa(lp1225
g16
aF2.0
aa(lp1226
g18
aF2.0
aa(lp1227
g20
aF2.0
aa(lp1228
g22
aF2.0
aa(lp1229
g24
aF2.0
aa(lp1230
g26
aF2.0
aa(lp1231
g28
aF2.0
aa(lp1232
g30
aF2.0
aa(lp1233
g32
aF0.6
aa(lp1234
g34
aF110.0
aa(lp1235
g36
aF145.0
aa(lp1236
g38
aF4.4
aa(lp1237
g40
aF70.0
aa(lp1238
g42
aF1.0
aatp1239
Rp1240
sI53
g1
((lp1241
(lp1242
g4
aI1
aa(lp1243
g6
aF40.0
aa(lp1244
g8
aF1.0
aa(lp1245
g10
aF2.0
aa(lp1246
g12
aF1.0
aa(lp1247
g14
aF1.0
aa(lp1248
g16
aF2.0
aa(lp1249
g18
aF2.0
aa(lp1250
g20
aF2.0
aa(lp1251
g22
aF1.0
aa(lp1252
g24
aF1.0
aa(lp1253
g26
aF2.0
aa(lp1254
g28
aF2.0
aa(lp1255
g30
aF2.0
aa(lp1256
g32
aF1.2
aa(lp1257
g34
aF85.0
aa(lp1258
g36
aF31.0
aa(lp1259
g38
aF4.0
aa(lp1260
g40
aF100.0
aa(lp1261
g42
aF1.0
aatp1262
Rp1263
sI54
g1
((lp1264
(lp1265
g4
aI1
aa(lp1266
g6
aF30.0
aa(lp1267
g8
aF1.0
aa(lp1268
g10
aF2.0
aa(lp1269
g12
aF2.0
aa(lp1270
g14
aF1.0
aa(lp1271
g16
aF2.0
aa(lp1272
g18
aF2.0
aa(lp1273
g20
aF2.0
aa(lp1274
g22
aF2.0
aa(lp1275
g24
aF2.0
aa(lp1276
g26
aF2.0
aa(lp1277
g28
aF2.0
aa(lp1278
g30
aF2.0
aa(lp1279
g32
aF0.7
aa(lp1280
g34
aF50.0
aa(lp1281
g36
aF78.0
aa(lp1282
g38
aF4.2
aa(lp1283
g40
aF74.0
aa(lp1284
g42
aF1.0
aatp1285
Rp1286
sI55
g1
((lp1287
(lp1288
g4
aI1
aa(lp1289
g6
aF37.0
aa(lp1290
g8
aF1.0
aa(lp1291
g10
aF1.0
aa(lp1292
g12
aF2.0
aa(lp1293
g14
aF1.0
aa(lp1294
g16
aF1.0
aa(lp1295
g18
aF1.0
aa(lp1296
g20
aF2.0
aa(lp1297
g22
aF2.0
aa(lp1298
g24
aF2.0
aa(lp1299
g26
aF2.0
aa(lp1300
g28
aF2.0
aa(lp1301
g30
aF2.0
aa(lp1302
g32
aF0.8
aa(lp1303
g34
aF92.0
aa(lp1304
g36
aF59.0
aa(lp1305
g38
aF1.0
aa(lp1306
g40
aF1.0
aa(lp1307
g42
aF1.0
aatp1308
Rp1309
sI56
g1
((lp1310
(lp1311
g4
aI1
aa(lp1312
g6
aF34.0
aa(lp1313
g8
aF1.0
aa(lp1314
g10
aF1.0
aa(lp1315
g12
aF2.0
aa(lp1316
g14
aF1.0
aa(lp1317
g16
aF1.0
aa(lp1318
g18
aF1.0
aa(lp1319
g20
aF1.0
aa(lp1320
g22
aF1.0
aa(lp1321
g24
aF1.0
aa(lp1322
g26
aF1.0
aa(lp1323
g28
aF1.0
aa(lp1324
g30
aF1.0
aa(lp1325
g32
aF1.0
aa(lp1326
g34
aF1.0
aa(lp1327
g36
aF1.0
aa(lp1328
g38
aF1.0
aa(lp1329
g40
aF1.0
aa(lp1330
g42
aF1.0
aatp1331
Rp1332
sI57
g1
((lp1333
(lp1334
g4
aI1
aa(lp1335
g6
aF30.0
aa(lp1336
g8
aF1.0
aa(lp1337
g10
aF2.0
aa(lp1338
g12
aF1.0
aa(lp1339
g14
aF2.0
aa(lp1340
g16
aF2.0
aa(lp1341
g18
aF2.0
aa(lp1342
g20
aF2.0
aa(lp1343
g22
aF2.0
aa(lp1344
g24
aF2.0
aa(lp1345
g26
aF2.0
aa(lp1346
g28
aF2.0
aa(lp1347
g30
aF2.0
aa(lp1348
g32
aF0.7
aa(lp1349
g34
aF52.0
aa(lp1350
g36
aF38.0
aa(lp1351
g38
aF3.9
aa(lp1352
g40
aF52.0
aa(lp1353
g42
aF1.0
aatp1354
Rp1355
sI58
g1
((lp1356
(lp1357
g4
aI1
aa(lp1358
g6
aF64.0
aa(lp1359
g8
aF1.0
aa(lp1360
g10
aF2.0
aa(lp1361
g12
aF1.0
aa(lp1362
g14
aF1.0
aa(lp1363
g16
aF1.0
aa(lp1364
g18
aF2.0
aa(lp1365
g20
aF1.0
aa(lp1366
g22
aF1.0
aa(lp1367
g24
aF2.0
aa(lp1368
g26
aF2.0
aa(lp1369
g28
aF2.0
aa(lp1370
g30
aF2.0
aa(lp1371
g32
aF1.0
aa(lp1372
g34
aF80.0
aa(lp1373
g36
aF38.0
aa(lp1374
g38
aF4.3
aa(lp1375
g40
aF74.0
aa(lp1376
g42
aF1.0
aatp1377
Rp1378
sI59
g1
((lp1379
(lp1380
g4
aI1
aa(lp1381
g6
aF45.0
aa(lp1382
g8
aF2.0
aa(lp1383
g10
aF1.0
aa(lp1384
g12
aF2.0
aa(lp1385
g14
aF1.0
aa(lp1386
g16
aF1.0
aa(lp1387
g18
aF2.0
aa(lp1388
g20
aF2.0
aa(lp1389
g22
aF2.0
aa(lp1390
g24
aF1.0
aa(lp1391
g26
aF2.0
aa(lp1392
g28
aF2.0
aa(lp1393
g30
aF2.0
aa(lp1394
g32
aF1.0
aa(lp1395
g34
aF85.0
aa(lp1396
g36
aF75.0
aa(lp1397
g38
aF1.0
aa(lp1398
g40
aF1.0
aa(lp1399
g42
aF1.0
aatp1400
Rp1401
sI60
g1
((lp1402
(lp1403
g4
aI1
aa(lp1404
g6
aF37.0
aa(lp1405
g8
aF1.0
aa(lp1406
g10
aF2.0
aa(lp1407
g12
aF2.0
aa(lp1408
g14
aF2.0
aa(lp1409
g16
aF2.0
aa(lp1410
g18
aF2.0
aa(lp1411
g20
aF2.0
aa(lp1412
g22
aF2.0
aa(lp1413
g24
aF2.0
aa(lp1414
g26
aF2.0
aa(lp1415
g28
aF2.0
aa(lp1416
g30
aF2.0
aa(lp1417
g32
aF0.7
aa(lp1418
g34
aF26.0
aa(lp1419
g36
aF58.0
aa(lp1420
g38
aF4.5
aa(lp1421
g40
aF100.0
aa(lp1422
g42
aF1.0
aatp1423
Rp1424
sI61
g1
((lp1425
(lp1426
g4
aI1
aa(lp1427
g6
aF32.0
aa(lp1428
g8
aF1.0
aa(lp1429
g10
aF2.0
aa(lp1430
g12
aF2.0
aa(lp1431
g14
aF2.0
aa(lp1432
g16
aF2.0
aa(lp1433
g18
aF2.0
aa(lp1434
g20
aF2.0
aa(lp1435
g22
aF2.0
aa(lp1436
g24
aF2.0
aa(lp1437
g26
aF2.0
aa(lp1438
g28
aF2.0
aa(lp1439
g30
aF2.0
aa(lp1440
g32
aF0.7
aa(lp1441
g34
aF102.0
aa(lp1442
g36
aF64.0
aa(lp1443
g38
aF4.0
aa(lp1444
g40
aF90.0
aa(lp1445
g42
aF1.0
aatp1446
Rp1447
sI62
g1
((lp1448
(lp1449
g4
aI1
aa(lp1450
g6
aF32.0
aa(lp1451
g8
aF1.0
aa(lp1452
g10
aF2.0
aa(lp1453
g12
aF2.0
aa(lp1454
g14
aF1.0
aa(lp1455
g16
aF1.0
aa(lp1456
g18
aF1.0
aa(lp1457
g20
aF2.0
aa(lp1458
g22
aF2.0
aa(lp1459
g24
aF2.0
aa(lp1460
g26
aF1.0
aa(lp1461
g28
aF2.0
aa(lp1462
g30
aF1.0
aa(lp1463
g32
aF3.5
aa(lp1464
g34
aF215.0
aa(lp1465
g36
aF54.0
aa(lp1466
g38
aF3.4
aa(lp1467
g40
aF29.0
aa(lp1468
g42
aF1.0
aatp1469
Rp1470
sI63
g1
((lp1471
(lp1472
g4
aI1
aa(lp1473
g6
aF36.0
aa(lp1474
g8
aF1.0
aa(lp1475
g10
aF1.0
aa(lp1476
g12
aF2.0
aa(lp1477
g14
aF2.0
aa(lp1478
g16
aF2.0
aa(lp1479
g18
aF2.0
aa(lp1480
g20
aF1.0
aa(lp1481
g22
aF1.0
aa(lp1482
g24
aF1.0
aa(lp1483
g26
aF2.0
aa(lp1484
g28
aF2.0
aa(lp1485
g30
aF2.0
aa(lp1486
g32
aF0.7
aa(lp1487
g34
aF164.0
aa(lp1488
g36
aF44.0
aa(lp1489
g38
aF3.1
aa(lp1490
g40
aF41.0
aa(lp1491
g42
aF1.0
aatp1492
Rp1493
sI64
g1
((lp1494
(lp1495
g4
aI1
aa(lp1496
g6
aF49.0
aa(lp1497
g8
aF1.0
aa(lp1498
g10
aF2.0
aa(lp1499
g12
aF2.0
aa(lp1500
g14
aF1.0
aa(lp1501
g16
aF1.0
aa(lp1502
g18
aF2.0
aa(lp1503
g20
aF2.0
aa(lp1504
g22
aF2.0
aa(lp1505
g24
aF2.0
aa(lp1506
g26
aF2.0
aa(lp1507
g28
aF2.0
aa(lp1508
g30
aF2.0
aa(lp1509
g32
aF0.8
aa(lp1510
g34
aF103.0
aa(lp1511
g36
aF43.0
aa(lp1512
g38
aF3.5
aa(lp1513
g40
aF66.0
aa(lp1514
g42
aF1.0
aatp1515
Rp1516
sI65
g1
((lp1517
(lp1518
g4
aI1
aa(lp1519
g6
aF27.0
aa(lp1520
g8
aF1.0
aa(lp1521
g10
aF2.0
aa(lp1522
g12
aF2.0
aa(lp1523
g14
aF2.0
aa(lp1524
g16
aF2.0
aa(lp1525
g18
aF2.0
aa(lp1526
g20
aF2.0
aa(lp1527
g22
aF2.0
aa(lp1528
g24
aF2.0
aa(lp1529
g26
aF2.0
aa(lp1530
g28
aF2.0
aa(lp1531
g30
aF2.0
aa(lp1532
g32
aF0.8
aa(lp1533
g34
aF1.0
aa(lp1534
g36
aF38.0
aa(lp1535
g38
aF4.2
aa(lp1536
g40
aF1.0
aa(lp1537
g42
aF1.0
aatp1538
Rp1539
sI66
g1
((lp1540
(lp1541
g4
aI1
aa(lp1542
g6
aF56.0
aa(lp1543
g8
aF1.0
aa(lp1544
g10
aF1.0
aa(lp1545
g12
aF2.0
aa(lp1546
g14
aF2.0
aa(lp1547
g16
aF2.0
aa(lp1548
g18
aF2.0
aa(lp1549
g20
aF2.0
aa(lp1550
g22
aF2.0
aa(lp1551
g24
aF2.0
aa(lp1552
g26
aF2.0
aa(lp1553
g28
aF2.0
aa(lp1554
g30
aF2.0
aa(lp1555
g32
aF0.7
aa(lp1556
g34
aF62.0
aa(lp1557
g36
aF33.0
aa(lp1558
g38
aF3.0
aa(lp1559
g40
aF1.0
aa(lp1560
g42
aF1.0
aatp1561
Rp1562
sI67
g1
((lp1563
(lp1564
g4
aI0
aa(lp1565
g6
aF57.0
aa(lp1566
g8
aF1.0
aa(lp1567
g10
aF2.0
aa(lp1568
g12
aF2.0
aa(lp1569
g14
aF1.0
aa(lp1570
g16
aF1.0
aa(lp1571
g18
aF1.0
aa(lp1572
g20
aF2.0
aa(lp1573
g22
aF2.0
aa(lp1574
g24
aF2.0
aa(lp1575
g26
aF1.0
aa(lp1576
g28
aF1.0
aa(lp1577
g30
aF2.0
aa(lp1578
g32
aF4.1
aa(lp1579
g34
aF1.0
aa(lp1580
g36
aF48.0
aa(lp1581
g38
aF2.6
aa(lp1582
g40
aF73.0
aa(lp1583
g42
aF1.0
aatp1584
Rp1585
sI68
g1
((lp1586
(lp1587
g4
aI1
aa(lp1588
g6
aF39.0
aa(lp1589
g8
aF1.0
aa(lp1590
g10
aF2.0
aa(lp1591
g12
aF2.0
aa(lp1592
g14
aF1.0
aa(lp1593
g16
aF2.0
aa(lp1594
g18
aF2.0
aa(lp1595
g20
aF2.0
aa(lp1596
g22
aF2.0
aa(lp1597
g24
aF2.0
aa(lp1598
g26
aF2.0
aa(lp1599
g28
aF2.0
aa(lp1600
g30
aF2.0
aa(lp1601
g32
aF1.0
aa(lp1602
g34
aF34.0
aa(lp1603
g36
aF15.0
aa(lp1604
g38
aF4.0
aa(lp1605
g40
aF54.0
aa(lp1606
g42
aF1.0
aatp1607
Rp1608
sI69
g1
((lp1609
(lp1610
g4
aI1
aa(lp1611
g6
aF44.0
aa(lp1612
g8
aF1.0
aa(lp1613
g10
aF1.0
aa(lp1614
g12
aF2.0
aa(lp1615
g14
aF1.0
aa(lp1616
g16
aF1.0
aa(lp1617
g18
aF2.0
aa(lp1618
g20
aF2.0
aa(lp1619
g22
aF2.0
aa(lp1620
g24
aF2.0
aa(lp1621
g26
aF2.0
aa(lp1622
g28
aF2.0
aa(lp1623
g30
aF2.0
aa(lp1624
g32
aF1.6
aa(lp1625
g34
aF68.0
aa(lp1626
g36
aF68.0
aa(lp1627
g38
aF3.7
aa(lp1628
g40
aF1.0
aa(lp1629
g42
aF1.0
aatp1630
Rp1631
sI70
g1
((lp1632
(lp1633
g4
aI1
aa(lp1634
g6
aF24.0
aa(lp1635
g8
aF1.0
aa(lp1636
g10
aF2.0
aa(lp1637
g12
aF2.0
aa(lp1638
g14
aF2.0
aa(lp1639
g16
aF2.0
aa(lp1640
g18
aF2.0
aa(lp1641
g20
aF2.0
aa(lp1642
g22
aF2.0
aa(lp1643
g24
aF2.0
aa(lp1644
g26
aF2.0
aa(lp1645
g28
aF2.0
aa(lp1646
g30
aF2.0
aa(lp1647
g32
aF0.8
aa(lp1648
g34
aF82.0
aa(lp1649
g36
aF39.0
aa(lp1650
g38
aF4.3
aa(lp1651
g40
aF1.0
aa(lp1652
g42
aF1.0
aatp1653
Rp1654
sI71
g1
((lp1655
(lp1656
g4
aI0
aa(lp1657
g6
aF34.0
aa(lp1658
g8
aF1.0
aa(lp1659
g10
aF1.0
aa(lp1660
g12
aF2.0
aa(lp1661
g14
aF1.0
aa(lp1662
g16
aF1.0
aa(lp1663
g18
aF2.0
aa(lp1664
g20
aF1.0
aa(lp1665
g22
aF1.0
aa(lp1666
g24
aF2.0
aa(lp1667
g26
aF1.0
aa(lp1668
g28
aF2.0
aa(lp1669
g30
aF2.0
aa(lp1670
g32
aF2.8
aa(lp1671
g34
aF127.0
aa(lp1672
g36
aF182.0
aa(lp1673
g38
aF1.0
aa(lp1674
g40
aF1.0
aa(lp1675
g42
aF1.0
aatp1676
Rp1677
sI72
g1
((lp1678
(lp1679
g4
aI1
aa(lp1680
g6
aF51.0
aa(lp1681
g8
aF1.0
aa(lp1682
g10
aF2.0
aa(lp1683
g12
aF2.0
aa(lp1684
g14
aF1.0
aa(lp1685
g16
aF1.0
aa(lp1686
g18
aF1.0
aa(lp1687
g20
aF1.0
aa(lp1688
g22
aF1.0
aa(lp1689
g24
aF1.0
aa(lp1690
g26
aF1.0
aa(lp1691
g28
aF1.0
aa(lp1692
g30
aF1.0
aa(lp1693
g32
aF0.9
aa(lp1694
g34
aF76.0
aa(lp1695
g36
aF271.0
aa(lp1696
g38
aF4.4
aa(lp1697
g40
aF1.0
aa(lp1698
g42
aF1.0
aatp1699
Rp1700
sI73
g1
((lp1701
(lp1702
g4
aI1
aa(lp1703
g6
aF36.0
aa(lp1704
g8
aF1.0
aa(lp1705
g10
aF1.0
aa(lp1706
g12
aF2.0
aa(lp1707
g14
aF1.0
aa(lp1708
g16
aF1.0
aa(lp1709
g18
aF1.0
aa(lp1710
g20
aF2.0
aa(lp1711
g22
aF1.0
aa(lp1712
g24
aF2.0
aa(lp1713
g26
aF2.0
aa(lp1714
g28
aF2.0
aa(lp1715
g30
aF2.0
aa(lp1716
g32
aF1.0
aa(lp1717
g34
aF1.0
aa(lp1718
g36
aF45.0
aa(lp1719
g38
aF4.0
aa(lp1720
g40
aF57.0
aa(lp1721
g42
aF1.0
aatp1722
Rp1723
sI74
g1
((lp1724
(lp1725
g4
aI1
aa(lp1726
g6
aF50.0
aa(lp1727
g8
aF1.0
aa(lp1728
g10
aF2.0
aa(lp1729
g12
aF2.0
aa(lp1730
g14
aF2.0
aa(lp1731
g16
aF2.0
aa(lp1732
g18
aF2.0
aa(lp1733
g20
aF2.0
aa(lp1734
g22
aF2.0
aa(lp1735
g24
aF2.0
aa(lp1736
g26
aF2.0
aa(lp1737
g28
aF2.0
aa(lp1738
g30
aF2.0
aa(lp1739
g32
aF1.5
aa(lp1740
g34
aF100.0
aa(lp1741
g36
aF100.0
aa(lp1742
g38
aF5.3
aa(lp1743
g40
aF1.0
aa(lp1744
g42
aF1.0
aatp1745
Rp1746
sI75
g1
((lp1747
(lp1748
g4
aI1
aa(lp1749
g6
aF32.0
aa(lp1750
g8
aF1.0
aa(lp1751
g10
aF1.0
aa(lp1752
g12
aF1.0
aa(lp1753
g14
aF1.0
aa(lp1754
g16
aF1.0
aa(lp1755
g18
aF2.0
aa(lp1756
g20
aF2.0
aa(lp1757
g22
aF2.0
aa(lp1758
g24
aF2.0
aa(lp1759
g26
aF2.0
aa(lp1760
g28
aF2.0
aa(lp1761
g30
aF2.0
aa(lp1762
g32
aF1.0
aa(lp1763
g34
aF55.0
aa(lp1764
g36
aF45.0
aa(lp1765
g38
aF4.1
aa(lp1766
g40
aF56.0
aa(lp1767
g42
aF1.0
aatp1768
Rp1769
sI76
g1
((lp1770
(lp1771
g4
aI0
aa(lp1772
g6
aF58.0
aa(lp1773
g8
aF1.0
aa(lp1774
g10
aF2.0
aa(lp1775
g12
aF2.0
aa(lp1776
g14
aF1.0
aa(lp1777
g16
aF2.0
aa(lp1778
g18
aF2.0
aa(lp1779
g20
aF1.0
aa(lp1780
g22
aF1.0
aa(lp1781
g24
aF1.0
aa(lp1782
g26
aF1.0
aa(lp1783
g28
aF2.0
aa(lp1784
g30
aF2.0
aa(lp1785
g32
aF2.0
aa(lp1786
g34
aF167.0
aa(lp1787
g36
aF242.0
aa(lp1788
g38
aF3.3
aa(lp1789
g40
aF1.0
aa(lp1790
g42
aF1.0
aatp1791
Rp1792
sI77
g1
((lp1793
(lp1794
g4
aI1
aa(lp1795
g6
aF34.0
aa(lp1796
g8
aF2.0
aa(lp1797
g10
aF1.0
aa(lp1798
g12
aF1.0
aa(lp1799
g14
aF2.0
aa(lp1800
g16
aF2.0
aa(lp1801
g18
aF2.0
aa(lp1802
g20
aF2.0
aa(lp1803
g22
aF1.0
aa(lp1804
g24
aF2.0
aa(lp1805
g26
aF2.0
aa(lp1806
g28
aF2.0
aa(lp1807
g30
aF2.0
aa(lp1808
g32
aF0.6
aa(lp1809
g34
aF30.0
aa(lp1810
g36
aF24.0
aa(lp1811
g38
aF4.0
aa(lp1812
g40
aF76.0
aa(lp1813
g42
aF1.0
aatp1814
Rp1815
sI78
g1
((lp1816
(lp1817
g4
aI1
aa(lp1818
g6
aF34.0
aa(lp1819
g8
aF1.0
aa(lp1820
g10
aF1.0
aa(lp1821
g12
aF2.0
aa(lp1822
g14
aF1.0
aa(lp1823
g16
aF2.0
aa(lp1824
g18
aF2.0
aa(lp1825
g20
aF1.0
aa(lp1826
g22
aF1.0
aa(lp1827
g24
aF2.0
aa(lp1828
g26
aF1.0
aa(lp1829
g28
aF2.0
aa(lp1830
g30
aF2.0
aa(lp1831
g32
aF1.0
aa(lp1832
g34
aF72.0
aa(lp1833
g36
aF46.0
aa(lp1834
g38
aF4.4
aa(lp1835
g40
aF57.0
aa(lp1836
g42
aF1.0
aatp1837
Rp1838
sI79
g1
((lp1839
(lp1840
g4
aI1
aa(lp1841
g6
aF28.0
aa(lp1842
g8
aF1.0
aa(lp1843
g10
aF2.0
aa(lp1844
g12
aF2.0
aa(lp1845
g14
aF2.0
aa(lp1846
g16
aF2.0
aa(lp1847
g18
aF2.0
aa(lp1848
g20
aF2.0
aa(lp1849
g22
aF2.0
aa(lp1850
g24
aF2.0
aa(lp1851
g26
aF2.0
aa(lp1852
g28
aF2.0
aa(lp1853
g30
aF2.0
aa(lp1854
g32
aF0.7
aa(lp1855
g34
aF85.0
aa(lp1856
g36
aF31.0
aa(lp1857
g38
aF4.9
aa(lp1858
g40
aF1.0
aa(lp1859
g42
aF1.0
aatp1860
Rp1861
sI80
g1
((lp1862
(lp1863
g4
aI1
aa(lp1864
g6
aF23.0
aa(lp1865
g8
aF1.0
aa(lp1866
g10
aF2.0
aa(lp1867
g12
aF2.0
aa(lp1868
g14
aF1.0
aa(lp1869
g16
aF1.0
aa(lp1870
g18
aF1.0
aa(lp1871
g20
aF2.0
aa(lp1872
g22
aF2.0
aa(lp1873
g24
aF2.0
aa(lp1874
g26
aF2.0
aa(lp1875
g28
aF2.0
aa(lp1876
g30
aF2.0
aa(lp1877
g32
aF0.8
aa(lp1878
g34
aF1.0
aa(lp1879
g36
aF14.0
aa(lp1880
g38
aF4.8
aa(lp1881
g40
aF1.0
aa(lp1882
g42
aF1.0
aatp1883
Rp1884
sI81
g1
((lp1885
(lp1886
g4
aI1
aa(lp1887
g6
aF36.0
aa(lp1888
g8
aF1.0
aa(lp1889
g10
aF2.0
aa(lp1890
g12
aF2.0
aa(lp1891
g14
aF2.0
aa(lp1892
g16
aF2.0
aa(lp1893
g18
aF2.0
aa(lp1894
g20
aF2.0
aa(lp1895
g22
aF2.0
aa(lp1896
g24
aF2.0
aa(lp1897
g26
aF2.0
aa(lp1898
g28
aF2.0
aa(lp1899
g30
aF2.0
aa(lp1900
g32
aF0.7
aa(lp1901
g34
aF62.0
aa(lp1902
g36
aF224.0
aa(lp1903
g38
aF4.2
aa(lp1904
g40
aF100.0
aa(lp1905
g42
aF1.0
aatp1906
Rp1907
sI82
g1
((lp1908
(lp1909
g4
aI1
aa(lp1910
g6
aF30.0
aa(lp1911
g8
aF1.0
aa(lp1912
g10
aF1.0
aa(lp1913
g12
aF2.0
aa(lp1914
g14
aF2.0
aa(lp1915
g16
aF2.0
aa(lp1916
g18
aF2.0
aa(lp1917
g20
aF2.0
aa(lp1918
g22
aF2.0
aa(lp1919
g24
aF2.0
aa(lp1920
g26
aF2.0
aa(lp1921
g28
aF2.0
aa(lp1922
g30
aF2.0
aa(lp1923
g32
aF0.7
aa(lp1924
g34
aF100.0
aa(lp1925
g36
aF31.0
aa(lp1926
g38
aF4.0
aa(lp1927
g40
aF100.0
aa(lp1928
g42
aF1.0
aatp1929
Rp1930
sI83
g1
((lp1931
(lp1932
g4
aI1
aa(lp1933
g6
aF67.0
aa(lp1934
g8
aF2.0
aa(lp1935
g10
aF1.0
aa(lp1936
g12
aF2.0
aa(lp1937
g14
aF1.0
aa(lp1938
g16
aF1.0
aa(lp1939
g18
aF2.0
aa(lp1940
g20
aF2.0
aa(lp1941
g22
aF2.0
aa(lp1942
g24
aF1.0
aa(lp1943
g26
aF1.0
aa(lp1944
g28
aF1.0
aa(lp1945
g30
aF1.0
aa(lp1946
g32
aF1.5
aa(lp1947
g34
aF179.0
aa(lp1948
g36
aF69.0
aa(lp1949
g38
aF2.9
aa(lp1950
g40
aF1.0
aa(lp1951
g42
aF1.0
aatp1952
Rp1953
sI84
g1
((lp1954
(lp1955
g4
aI1
aa(lp1956
g6
aF62.0
aa(lp1957
g8
aF2.0
aa(lp1958
g10
aF2.0
aa(lp1959
g12
aF2.0
aa(lp1960
g14
aF1.0
aa(lp1961
g16
aF1.0
aa(lp1962
g18
aF2.0
aa(lp1963
g20
aF2.0
aa(lp1964
g22
aF1.0
aa(lp1965
g24
aF2.0
aa(lp1966
g26
aF1.0
aa(lp1967
g28
aF2.0
aa(lp1968
g30
aF2.0
aa(lp1969
g32
aF1.3
aa(lp1970
g34
aF141.0
aa(lp1971
g36
aF156.0
aa(lp1972
g38
aF3.9
aa(lp1973
g40
aF58.0
aa(lp1974
g42
aF1.0
aatp1975
Rp1976
sI85
g1
((lp1977
(lp1978
g4
aI1
aa(lp1979
g6
aF28.0
aa(lp1980
g8
aF1.0
aa(lp1981
g10
aF1.0
aa(lp1982
g12
aF2.0
aa(lp1983
g14
aF1.0
aa(lp1984
g16
aF1.0
aa(lp1985
g18
aF1.0
aa(lp1986
g20
aF2.0
aa(lp1987
g22
aF1.0
aa(lp1988
g24
aF2.0
aa(lp1989
g26
aF2.0
aa(lp1990
g28
aF2.0
aa(lp1991
g30
aF2.0
aa(lp1992
g32
aF1.6
aa(lp1993
g34
aF44.0
aa(lp1994
g36
aF123.0
aa(lp1995
g38
aF4.0
aa(lp1996
g40
aF46.0
aa(lp1997
g42
aF1.0
aatp1998
Rp1999
sI86
g1
((lp2000
(lp2001
g4
aI0
aa(lp2002
g6
aF44.0
aa(lp2003
g8
aF1.0
aa(lp2004
g10
aF1.0
aa(lp2005
g12
aF2.0
aa(lp2006
g14
aF1.0
aa(lp2007
g16
aF1.0
aa(lp2008
g18
aF2.0
aa(lp2009
g20
aF2.0
aa(lp2010
g22
aF2.0
aa(lp2011
g24
aF1.0
aa(lp2012
g26
aF2.0
aa(lp2013
g28
aF2.0
aa(lp2014
g30
aF1.0
aa(lp2015
g32
aF0.9
aa(lp2016
g34
aF135.0
aa(lp2017
g36
aF55.0
aa(lp2018
g38
aF1.0
aa(lp2019
g40
aF41.0
aa(lp2020
g42
aF2.0
aatp2021
Rp2022
sI87
g1
((lp2023
(lp2024
g4
aI0
aa(lp2025
g6
aF30.0
aa(lp2026
g8
aF1.0
aa(lp2027
g10
aF2.0
aa(lp2028
g12
aF2.0
aa(lp2029
g14
aF1.0
aa(lp2030
g16
aF1.0
aa(lp2031
g18
aF1.0
aa(lp2032
g20
aF2.0
aa(lp2033
g22
aF1.0
aa(lp2034
g24
aF2.0
aa(lp2035
g26
aF1.0
aa(lp2036
g28
aF1.0
aa(lp2037
g30
aF1.0
aa(lp2038
g32
aF2.5
aa(lp2039
g34
aF165.0
aa(lp2040
g36
aF64.0
aa(lp2041
g38
aF2.8
aa(lp2042
g40
aF1.0
aa(lp2043
g42
aF2.0
aatp2044
Rp2045
sI88
g1
((lp2046
(lp2047
g4
aI0
aa(lp2048
g6
aF38.0
aa(lp2049
g8
aF1.0
aa(lp2050
g10
aF1.0
aa(lp2051
g12
aF2.0
aa(lp2052
g14
aF1.0
aa(lp2053
g16
aF1.0
aa(lp2054
g18
aF1.0
aa(lp2055
g20
aF2.0
aa(lp2056
g22
aF1.0
aa(lp2057
g24
aF2.0
aa(lp2058
g26
aF1.0
aa(lp2059
g28
aF1.0
aa(lp2060
g30
aF1.0
aa(lp2061
g32
aF1.2
aa(lp2062
g34
aF118.0
aa(lp2063
g36
aF16.0
aa(lp2064
g38
aF2.8
aa(lp2065
g40
aF1.0
aa(lp2066
g42
aF2.0
aatp2067
Rp2068
sI89
g1
((lp2069
(lp2070
g4
aI1
aa(lp2071
g6
aF38.0
aa(lp2072
g8
aF1.0
aa(lp2073
g10
aF1.0
aa(lp2074
g12
aF2.0
aa(lp2075
g14
aF1.0
aa(lp2076
g16
aF1.0
aa(lp2077
g18
aF1.0
aa(lp2078
g20
aF1.0
aa(lp2079
g22
aF1.0
aa(lp2080
g24
aF2.0
aa(lp2081
g26
aF2.0
aa(lp2082
g28
aF2.0
aa(lp2083
g30
aF2.0
aa(lp2084
g32
aF0.6
aa(lp2085
g34
aF76.0
aa(lp2086
g36
aF18.0
aa(lp2087
g38
aF4.4
aa(lp2088
g40
aF84.0
aa(lp2089
g42
aF2.0
aatp2090
Rp2091
sI90
g1
((lp2092
(lp2093
g4
aI1
aa(lp2094
g6
aF50.0
aa(lp2095
g8
aF2.0
aa(lp2096
g10
aF1.0
aa(lp2097
g12
aF2.0
aa(lp2098
g14
aF1.0
aa(lp2099
g16
aF2.0
aa(lp2100
g18
aF2.0
aa(lp2101
g20
aF1.0
aa(lp2102
g22
aF1.0
aa(lp2103
g24
aF1.0
aa(lp2104
g26
aF1.0
aa(lp2105
g28
aF2.0
aa(lp2106
g30
aF2.0
aa(lp2107
g32
aF0.9
aa(lp2108
g34
aF230.0
aa(lp2109
g36
aF117.0
aa(lp2110
g38
aF3.4
aa(lp2111
g40
aF41.0
aa(lp2112
g42
aF2.0
aatp2113
Rp2114
sI91
g1
((lp2115
(lp2116
g4
aI0
aa(lp2117
g6
aF42.0
aa(lp2118
g8
aF1.0
aa(lp2119
g10
aF1.0
aa(lp2120
g12
aF2.0
aa(lp2121
g14
aF1.0
aa(lp2122
g16
aF1.0
aa(lp2123
g18
aF1.0
aa(lp2124
g20
aF2.0
aa(lp2125
g22
aF2.0
aa(lp2126
g24
aF1.0
aa(lp2127
g26
aF1.0
aa(lp2128
g28
aF2.0
aa(lp2129
g30
aF1.0
aa(lp2130
g32
aF4.6
aa(lp2131
g34
aF1.0
aa(lp2132
g36
aF55.0
aa(lp2133
g38
aF3.3
aa(lp2134
g40
aF1.0
aa(lp2135
g42
aF2.0
aatp2136
Rp2137
sI92
g1
((lp2138
(lp2139
g4
aI1
aa(lp2140
g6
aF33.0
aa(lp2141
g8
aF1.0
aa(lp2142
g10
aF2.0
aa(lp2143
g12
aF2.0
aa(lp2144
g14
aF2.0
aa(lp2145
g16
aF2.0
aa(lp2146
g18
aF2.0
aa(lp2147
g20
aF1.0
aa(lp2148
g22
aF1.0
aa(lp2149
g24
aF2.0
aa(lp2150
g26
aF2.0
aa(lp2151
g28
aF2.0
aa(lp2152
g30
aF2.0
aa(lp2153
g32
aF1.0
aa(lp2154
g34
aF1.0
aa(lp2155
g36
aF60.0
aa(lp2156
g38
aF4.0
aa(lp2157
g40
aF1.0
aa(lp2158
g42
aF2.0
aatp2159
Rp2160
sI93
g1
((lp2161
(lp2162
g4
aI1
aa(lp2163
g6
aF52.0
aa(lp2164
g8
aF1.0
aa(lp2165
g10
aF1.0
aa(lp2166
g12
aF2.0
aa(lp2167
g14
aF2.0
aa(lp2168
g16
aF2.0
aa(lp2169
g18
aF2.0
aa(lp2170
g20
aF2.0
aa(lp2171
g22
aF2.0
aa(lp2172
g24
aF2.0
aa(lp2173
g26
aF2.0
aa(lp2174
g28
aF2.0
aa(lp2175
g30
aF2.0
aa(lp2176
g32
aF1.5
aa(lp2177
g34
aF1.0
aa(lp2178
g36
aF69.0
aa(lp2179
g38
aF2.9
aa(lp2180
g40
aF1.0
aa(lp2181
g42
aF2.0
aatp2182
Rp2183
sI94
g1
((lp2184
(lp2185
g4
aI0
aa(lp2186
g6
aF59.0
aa(lp2187
g8
aF1.0
aa(lp2188
g10
aF1.0
aa(lp2189
g12
aF2.0
aa(lp2190
g14
aF1.0
aa(lp2191
g16
aF1.0
aa(lp2192
g18
aF2.0
aa(lp2193
g20
aF2.0
aa(lp2194
g22
aF1.0
aa(lp2195
g24
aF1.0
aa(lp2196
g26
aF1.0
aa(lp2197
g28
aF2.0
aa(lp2198
g30
aF2.0
aa(lp2199
g32
aF1.5
aa(lp2200
g34
aF107.0
aa(lp2201
g36
aF157.0
aa(lp2202
g38
aF3.6
aa(lp2203
g40
aF38.0
aa(lp2204
g42
aF2.0
aatp2205
Rp2206
sI95
g1
((lp2207
(lp2208
g4
aI1
aa(lp2209
g6
aF40.0
aa(lp2210
g8
aF1.0
aa(lp2211
g10
aF1.0
aa(lp2212
g12
aF1.0
aa(lp2213
g14
aF1.0
aa(lp2214
g16
aF1.0
aa(lp2215
g18
aF1.0
aa(lp2216
g20
aF1.0
aa(lp2217
g22
aF1.0
aa(lp2218
g24
aF2.0
aa(lp2219
g26
aF2.0
aa(lp2220
g28
aF2.0
aa(lp2221
g30
aF2.0
aa(lp2222
g32
aF0.6
aa(lp2223
g34
aF40.0
aa(lp2224
g36
aF69.0
aa(lp2225
g38
aF4.2
aa(lp2226
g40
aF67.0
aa(lp2227
g42
aF2.0
aatp2228
Rp2229
sI96
g1
((lp2230
(lp2231
g4
aI1
aa(lp2232
g6
aF30.0
aa(lp2233
g8
aF1.0
aa(lp2234
g10
aF1.0
aa(lp2235
g12
aF2.0
aa(lp2236
g14
aF1.0
aa(lp2237
g16
aF1.0
aa(lp2238
g18
aF2.0
aa(lp2239
g20
aF2.0
aa(lp2240
g22
aF1.0
aa(lp2241
g24
aF2.0
aa(lp2242
g26
aF1.0
aa(lp2243
g28
aF2.0
aa(lp2244
g30
aF2.0
aa(lp2245
g32
aF0.8
aa(lp2246
g34
aF147.0
aa(lp2247
g36
aF128.0
aa(lp2248
g38
aF3.9
aa(lp2249
g40
aF100.0
aa(lp2250
g42
aF2.0
aatp2251
Rp2252
sI97
g1
((lp2253
(lp2254
g4
aI1
aa(lp2255
g6
aF44.0
aa(lp2256
g8
aF1.0
aa(lp2257
g10
aF1.0
aa(lp2258
g12
aF2.0
aa(lp2259
g14
aF1.0
aa(lp2260
g16
aF1.0
aa(lp2261
g18
aF2.0
aa(lp2262
g20
aF1.0
aa(lp2263
g22
aF1.0
aa(lp2264
g24
aF2.0
aa(lp2265
g26
aF1.0
aa(lp2266
g28
aF2.0
aa(lp2267
g30
aF2.0
aa(lp2268
g32
aF3.0
aa(lp2269
g34
aF114.0
aa(lp2270
g36
aF65.0
aa(lp2271
g38
aF3.5
aa(lp2272
g40
aF1.0
aa(lp2273
g42
aF2.0
aatp2274
Rp2275
sI98
g1
((lp2276
(lp2277
g4
aI0
aa(lp2278
g6
aF47.0
aa(lp2279
g8
aF1.0
aa(lp2280
g10
aF2.0
aa(lp2281
g12
aF2.0
aa(lp2282
g14
aF2.0
aa(lp2283
g16
aF2.0
aa(lp2284
g18
aF2.0
aa(lp2285
g20
aF2.0
aa(lp2286
g22
aF2.0
aa(lp2287
g24
aF2.0
aa(lp2288
g26
aF1.0
aa(lp2289
g28
aF2.0
aa(lp2290
g30
aF1.0
aa(lp2291
g32
aF2.0
aa(lp2292
g34
aF84.0
aa(lp2293
g36
aF23.0
aa(lp2294
g38
aF4.2
aa(lp2295
g40
aF66.0
aa(lp2296
g42
aF2.0
aatp2297
Rp2298
sI99
g1
((lp2299
(lp2300
g4
aI1
aa(lp2301
g6
aF60.0
aa(lp2302
g8
aF1.0
aa(lp2303
g10
aF1.0
aa(lp2304
g12
aF2.0
aa(lp2305
g14
aF1.0
aa(lp2306
g16
aF2.0
aa(lp2307
g18
aF2.0
aa(lp2308
g20
aF1.0
aa(lp2309
g22
aF1.0
aa(lp2310
g24
aF1.0
aa(lp2311
g26
aF1.0
aa(lp2312
g28
aF2.0
aa(lp2313
g30
aF2.0
aa(lp2314
g32
aF1.0
aa(lp2315
g34
aF1.0
aa(lp2316
g36
aF40.0
aa(lp2317
g38
aF1.0
aa(lp2318
g40
aF1.0
aa(lp2319
g42
aF2.0
aatp2320
Rp2321
sI100
g1
((lp2322
(lp2323
g4
aI0
aa(lp2324
g6
aF48.0
aa(lp2325
g8
aF1.0
aa(lp2326
g10
aF1.0
aa(lp2327
g12
aF2.0
aa(lp2328
g14
aF1.0
aa(lp2329
g16
aF1.0
aa(lp2330
g18
aF2.0
aa(lp2331
g20
aF2.0
aa(lp2332
g22
aF1.0
aa(lp2333
g24
aF2.0
aa(lp2334
g26
aF1.0
aa(lp2335
g28
aF1.0
aa(lp2336
g30
aF1.0
aa(lp2337
g32
aF4.8
aa(lp2338
g34
aF123.0
aa(lp2339
g36
aF157.0
aa(lp2340
g38
aF2.7
aa(lp2341
g40
aF31.0
aa(lp2342
g42
aF2.0
aatp2343
Rp2344
sI101
g1
((lp2345
(lp2346
g4
aI1
aa(lp2347
g6
aF22.0
aa(lp2348
g8
aF1.0
aa(lp2349
g10
aF2.0
aa(lp2350
g12
aF2.0
aa(lp2351
g14
aF2.0
aa(lp2352
g16
aF2.0
aa(lp2353
g18
aF2.0
aa(lp2354
g20
aF2.0
aa(lp2355
g22
aF2.0
aa(lp2356
g24
aF2.0
aa(lp2357
g26
aF2.0
aa(lp2358
g28
aF2.0
aa(lp2359
g30
aF2.0
aa(lp2360
g32
aF0.7
aa(lp2361
g34
aF1.0
aa(lp2362
g36
aF24.0
aa(lp2363
g38
aF1.0
aa(lp2364
g40
aF1.0
aa(lp2365
g42
aF2.0
aatp2366
Rp2367
sI102
g1
((lp2368
(lp2369
g4
aI1
aa(lp2370
g6
aF27.0
aa(lp2371
g8
aF1.0
aa(lp2372
g10
aF1.0
aa(lp2373
g12
aF2.0
aa(lp2374
g14
aF1.0
aa(lp2375
g16
aF2.0
aa(lp2376
g18
aF2.0
aa(lp2377
g20
aF2.0
aa(lp2378
g22
aF1.0
aa(lp2379
g24
aF2.0
aa(lp2380
g26
aF2.0
aa(lp2381
g28
aF2.0
aa(lp2382
g30
aF2.0
aa(lp2383
g32
aF2.4
aa(lp2384
g34
aF168.0
aa(lp2385
g36
aF227.0
aa(lp2386
g38
aF3.0
aa(lp2387
g40
aF66.0
aa(lp2388
g42
aF2.0
aatp2389
Rp2390
sI103
g1
((lp2391
(lp2392
g4
aI1
aa(lp2393
g6
aF51.0
aa(lp2394
g8
aF1.0
aa(lp2395
g10
aF1.0
aa(lp2396
g12
aF2.0
aa(lp2397
g14
aF1.0
aa(lp2398
g16
aF1.0
aa(lp2399
g18
aF1.0
aa(lp2400
g20
aF2.0
aa(lp2401
g22
aF1.0
aa(lp2402
g24
aF1.0
aa(lp2403
g26
aF1.0
aa(lp2404
g28
aF2.0
aa(lp2405
g30
aF1.0
aa(lp2406
g32
aF4.6
aa(lp2407
g34
aF215.0
aa(lp2408
g36
aF269.0
aa(lp2409
g38
aF3.9
aa(lp2410
g40
aF51.0
aa(lp2411
g42
aF2.0
aatp2412
Rp2413
sI104
g1
((lp2414
(lp2415
g4
aI0
aa(lp2416
g6
aF47.0
aa(lp2417
g8
aF1.0
aa(lp2418
g10
aF2.0
aa(lp2419
g12
aF2.0
aa(lp2420
g14
aF1.0
aa(lp2421
g16
aF1.0
aa(lp2422
g18
aF2.0
aa(lp2423
g20
aF2.0
aa(lp2424
g22
aF1.0
aa(lp2425
g24
aF2.0
aa(lp2426
g26
aF2.0
aa(lp2427
g28
aF1.0
aa(lp2428
g30
aF1.0
aa(lp2429
g32
aF1.7
aa(lp2430
g34
aF86.0
aa(lp2431
g36
aF20.0
aa(lp2432
g38
aF2.1
aa(lp2433
g40
aF46.0
aa(lp2434
g42
aF2.0
aatp2435
Rp2436
sI105
g1
((lp2437
(lp2438
g4
aI1
aa(lp2439
g6
aF25.0
aa(lp2440
g8
aF1.0
aa(lp2441
g10
aF2.0
aa(lp2442
g12
aF2.0
aa(lp2443
g14
aF2.0
aa(lp2444
g16
aF2.0
aa(lp2445
g18
aF2.0
aa(lp2446
g20
aF2.0
aa(lp2447
g22
aF2.0
aa(lp2448
g24
aF2.0
aa(lp2449
g26
aF2.0
aa(lp2450
g28
aF2.0
aa(lp2451
g30
aF2.0
aa(lp2452
g32
aF0.6
aa(lp2453
g34
aF1.0
aa(lp2454
g36
aF34.0
aa(lp2455
g38
aF6.4
aa(lp2456
g40
aF1.0
aa(lp2457
g42
aF2.0
aatp2458
Rp2459
sI106
g1
((lp2460
(lp2461
g4
aI0
aa(lp2462
g6
aF35.0
aa(lp2463
g8
aF1.0
aa(lp2464
g10
aF1.0
aa(lp2465
g12
aF2.0
aa(lp2466
g14
aF1.0
aa(lp2467
g16
aF2.0
aa(lp2468
g18
aF2.0
aa(lp2469
g20
aF1.0
aa(lp2470
g22
aF1.0
aa(lp2471
g24
aF1.0
aa(lp2472
g26
aF1.0
aa(lp2473
g28
aF1.0
aa(lp2474
g30
aF2.0
aa(lp2475
g32
aF1.5
aa(lp2476
g34
aF138.0
aa(lp2477
g36
aF58.0
aa(lp2478
g38
aF2.6
aa(lp2479
g40
aF1.0
aa(lp2480
g42
aF2.0
aatp2481
Rp2482
sI107
g1
((lp2483
(lp2484
g4
aI1
aa(lp2485
g6
aF45.0
aa(lp2486
g8
aF1.0
aa(lp2487
g10
aF1.0
aa(lp2488
g12
aF2.0
aa(lp2489
g14
aF1.0
aa(lp2490
g16
aF1.0
aa(lp2491
g18
aF1.0
aa(lp2492
g20
aF2.0
aa(lp2493
g22
aF2.0
aa(lp2494
g24
aF2.0
aa(lp2495
g26
aF2.0
aa(lp2496
g28
aF2.0
aa(lp2497
g30
aF2.0
aa(lp2498
g32
aF2.3
aa(lp2499
g34
aF1.0
aa(lp2500
g36
aF648.0
aa(lp2501
g38
aF1.0
aa(lp2502
g40
aF1.0
aa(lp2503
g42
aF2.0
aatp2504
Rp2505
sI108
g1
((lp2506
(lp2507
g4
aI1
aa(lp2508
g6
aF54.0
aa(lp2509
g8
aF1.0
aa(lp2510
g10
aF1.0
aa(lp2511
g12
aF1.0
aa(lp2512
g14
aF2.0
aa(lp2513
g16
aF2.0
aa(lp2514
g18
aF2.0
aa(lp2515
g20
aF1.0
aa(lp2516
g22
aF1.0
aa(lp2517
g24
aF2.0
aa(lp2518
g26
aF2.0
aa(lp2519
g28
aF2.0
aa(lp2520
g30
aF2.0
aa(lp2521
g32
aF1.0
aa(lp2522
g34
aF155.0
aa(lp2523
g36
aF225.0
aa(lp2524
g38
aF3.6
aa(lp2525
g40
aF67.0
aa(lp2526
g42
aF2.0
aatp2527
Rp2528
sI109
g1
((lp2529
(lp2530
g4
aI0
aa(lp2531
g6
aF33.0
aa(lp2532
g8
aF1.0
aa(lp2533
g10
aF1.0
aa(lp2534
g12
aF2.0
aa(lp2535
g14
aF1.0
aa(lp2536
g16
aF1.0
aa(lp2537
g18
aF2.0
aa(lp2538
g20
aF2.0
aa(lp2539
g22
aF2.0
aa(lp2540
g24
aF2.0
aa(lp2541
g26
aF2.0
aa(lp2542
g28
aF1.0
aa(lp2543
g30
aF2.0
aa(lp2544
g32
aF0.7
aa(lp2545
g34
aF63.0
aa(lp2546
g36
aF80.0
aa(lp2547
g38
aF3.0
aa(lp2548
g40
aF31.0
aa(lp2549
g42
aF2.0
aatp2550
Rp2551
sI110
g1
((lp2552
(lp2553
g4
aI1
aa(lp2554
g6
aF7.0
aa(lp2555
g8
aF1.0
aa(lp2556
g10
aF2.0
aa(lp2557
g12
aF2.0
aa(lp2558
g14
aF2.0
aa(lp2559
g16
aF2.0
aa(lp2560
g18
aF2.0
aa(lp2561
g20
aF2.0
aa(lp2562
g22
aF1.0
aa(lp2563
g24
aF1.0
aa(lp2564
g26
aF2.0
aa(lp2565
g28
aF2.0
aa(lp2566
g30
aF2.0
aa(lp2567
g32
aF0.7
aa(lp2568
g34
aF256.0
aa(lp2569
g36
aF25.0
aa(lp2570
g38
aF4.2
aa(lp2571
g40
aF1.0
aa(lp2572
g42
aF2.0
aatp2573
Rp2574
sI111
g1
((lp2575
(lp2576
g4
aI0
aa(lp2577
g6
aF42.0
aa(lp2578
g8
aF1.0
aa(lp2579
g10
aF1.0
aa(lp2580
g12
aF1.0
aa(lp2581
g14
aF1.0
aa(lp2582
g16
aF1.0
aa(lp2583
g18
aF2.0
aa(lp2584
g20
aF2.0
aa(lp2585
g22
aF2.0
aa(lp2586
g24
aF2.0
aa(lp2587
g26
aF1.0
aa(lp2588
g28
aF2.0
aa(lp2589
g30
aF2.0
aa(lp2590
g32
aF0.5
aa(lp2591
g34
aF62.0
aa(lp2592
g36
aF68.0
aa(lp2593
g38
aF3.8
aa(lp2594
g40
aF29.0
aa(lp2595
g42
aF2.0
aatp2596
Rp2597
sI112
g1
((lp2598
(lp2599
g4
aI1
aa(lp2600
g6
aF52.0
aa(lp2601
g8
aF1.0
aa(lp2602
g10
aF1.0
aa(lp2603
g12
aF2.0
aa(lp2604
g14
aF1.0
aa(lp2605
g16
aF2.0
aa(lp2606
g18
aF2.0
aa(lp2607
g20
aF2.0
aa(lp2608
g22
aF2.0
aa(lp2609
g24
aF2.0
aa(lp2610
g26
aF2.0
aa(lp2611
g28
aF2.0
aa(lp2612
g30
aF2.0
aa(lp2613
g32
aF1.0
aa(lp2614
g34
aF85.0
aa(lp2615
g36
aF30.0
aa(lp2616
g38
aF4.0
aa(lp2617
g40
aF1.0
aa(lp2618
g42
aF2.0
aatp2619
Rp2620
sI113
g1
((lp2621
(lp2622
g4
aI1
aa(lp2623
g6
aF45.0
aa(lp2624
g8
aF1.0
aa(lp2625
g10
aF1.0
aa(lp2626
g12
aF2.0
aa(lp2627
g14
aF1.0
aa(lp2628
g16
aF2.0
aa(lp2629
g18
aF2.0
aa(lp2630
g20
aF2.0
aa(lp2631
g22
aF1.0
aa(lp2632
g24
aF1.0
aa(lp2633
g26
aF2.0
aa(lp2634
g28
aF2.0
aa(lp2635
g30
aF2.0
aa(lp2636
g32
aF1.2
aa(lp2637
g34
aF81.0
aa(lp2638
g36
aF65.0
aa(lp2639
g38
aF3.0
aa(lp2640
g40
aF1.0
aa(lp2641
g42
aF1.0
aatp2642
Rp2643
sI114
g1
((lp2644
(lp2645
g4
aI1
aa(lp2646
g6
aF36.0
aa(lp2647
g8
aF1.0
aa(lp2648
g10
aF1.0
aa(lp2649
g12
aF2.0
aa(lp2650
g14
aF2.0
aa(lp2651
g16
aF2.0
aa(lp2652
g18
aF2.0
aa(lp2653
g20
aF2.0
aa(lp2654
g22
aF2.0
aa(lp2655
g24
aF2.0
aa(lp2656
g26
aF2.0
aa(lp2657
g28
aF2.0
aa(lp2658
g30
aF2.0
aa(lp2659
g32
aF1.1
aa(lp2660
g34
aF141.0
aa(lp2661
g36
aF75.0
aa(lp2662
g38
aF3.3
aa(lp2663
g40
aF1.0
aa(lp2664
g42
aF2.0
aatp2665
Rp2666
sI115
g1
((lp2667
(lp2668
g4
aI1
aa(lp2669
g6
aF69.0
aa(lp2670
g8
aF2.0
aa(lp2671
g10
aF2.0
aa(lp2672
g12
aF2.0
aa(lp2673
g14
aF1.0
aa(lp2674
g16
aF2.0
aa(lp2675
g18
aF2.0
aa(lp2676
g20
aF2.0
aa(lp2677
g22
aF2.0
aa(lp2678
g24
aF2.0
aa(lp2679
g26
aF2.0
aa(lp2680
g28
aF2.0
aa(lp2681
g30
aF2.0
aa(lp2682
g32
aF3.2
aa(lp2683
g34
aF119.0
aa(lp2684
g36
aF136.0
aa(lp2685
g38
aF1.0
aa(lp2686
g40
aF1.0
aa(lp2687
g42
aF2.0
aatp2688
Rp2689
sI116
g1
((lp2690
(lp2691
g4
aI1
aa(lp2692
g6
aF24.0
aa(lp2693
g8
aF1.0
aa(lp2694
g10
aF1.0
aa(lp2695
g12
aF2.0
aa(lp2696
g14
aF1.0
aa(lp2697
g16
aF2.0
aa(lp2698
g18
aF2.0
aa(lp2699
g20
aF2.0
aa(lp2700
g22
aF2.0
aa(lp2701
g24
aF2.0
aa(lp2702
g26
aF2.0
aa(lp2703
g28
aF2.0
aa(lp2704
g30
aF2.0
aa(lp2705
g32
aF1.0
aa(lp2706
g34
aF1.0
aa(lp2707
g36
aF34.0
aa(lp2708
g38
aF4.1
aa(lp2709
g40
aF1.0
aa(lp2710
g42
aF2.0
aatp2711
Rp2712
sI117
g1
((lp2713
(lp2714
g4
aI1
aa(lp2715
g6
aF50.0
aa(lp2716
g8
aF1.0
aa(lp2717
g10
aF2.0
aa(lp2718
g12
aF2.0
aa(lp2719
g14
aF2.0
aa(lp2720
g16
aF2.0
aa(lp2721
g18
aF2.0
aa(lp2722
g20
aF2.0
aa(lp2723
g22
aF2.0
aa(lp2724
g24
aF2.0
aa(lp2725
g26
aF2.0
aa(lp2726
g28
aF2.0
aa(lp2727
g30
aF2.0
aa(lp2728
g32
aF1.0
aa(lp2729
g34
aF139.0
aa(lp2730
g36
aF81.0
aa(lp2731
g38
aF3.9
aa(lp2732
g40
aF62.0
aa(lp2733
g42
aF2.0
aatp2734
Rp2735
sI118
g1
((lp2736
(lp2737
g4
aI0
aa(lp2738
g6
aF61.0
aa(lp2739
g8
aF1.0
aa(lp2740
g10
aF1.0
aa(lp2741
g12
aF2.0
aa(lp2742
g14
aF1.0
aa(lp2743
g16
aF1.0
aa(lp2744
g18
aF2.0
aa(lp2745
g20
aF1.0
aa(lp2746
g22
aF1.0
aa(lp2747
g24
aF2.0
aa(lp2748
g26
aF1.0
aa(lp2749
g28
aF2.0
aa(lp2750
g30
aF2.0
aa(lp2751
g32
aF1.0
aa(lp2752
g34
aF1.0
aa(lp2753
g36
aF1.0
aa(lp2754
g38
aF1.0
aa(lp2755
g40
aF1.0
aa(lp2756
g42
aF2.0
aatp2757
Rp2758
sI119
g1
((lp2759
(lp2760
g4
aI1
aa(lp2761
g6
aF54.0
aa(lp2762
g8
aF1.0
aa(lp2763
g10
aF2.0
aa(lp2764
g12
aF2.0
aa(lp2765
g14
aF1.0
aa(lp2766
g16
aF2.0
aa(lp2767
g18
aF2.0
aa(lp2768
g20
aF1.0
aa(lp2769
g22
aF1.0
aa(lp2770
g24
aF2.0
aa(lp2771
g26
aF2.0
aa(lp2772
g28
aF2.0
aa(lp2773
g30
aF2.0
aa(lp2774
g32
aF3.2
aa(lp2775
g34
aF85.0
aa(lp2776
g36
aF28.0
aa(lp2777
g38
aF3.8
aa(lp2778
g40
aF1.0
aa(lp2779
g42
aF2.0
aatp2780
Rp2781
sI120
g1
((lp2782
(lp2783
g4
aI0
aa(lp2784
g6
aF56.0
aa(lp2785
g8
aF1.0
aa(lp2786
g10
aF1.0
aa(lp2787
g12
aF2.0
aa(lp2788
g14
aF1.0
aa(lp2789
g16
aF1.0
aa(lp2790
g18
aF1.0
aa(lp2791
g20
aF1.0
aa(lp2792
g22
aF1.0
aa(lp2793
g24
aF2.0
aa(lp2794
g26
aF1.0
aa(lp2795
g28
aF2.0
aa(lp2796
g30
aF2.0
aa(lp2797
g32
aF2.9
aa(lp2798
g34
aF90.0
aa(lp2799
g36
aF153.0
aa(lp2800
g38
aF4.0
aa(lp2801
g40
aF1.0
aa(lp2802
g42
aF2.0
aatp2803
Rp2804
sI121
g1
((lp2805
(lp2806
g4
aI1
aa(lp2807
g6
aF20.0
aa(lp2808
g8
aF1.0
aa(lp2809
g10
aF1.0
aa(lp2810
g12
aF2.0
aa(lp2811
g14
aF1.0
aa(lp2812
g16
aF1.0
aa(lp2813
g18
aF1.0
aa(lp2814
g20
aF2.0
aa(lp2815
g22
aF2.0
aa(lp2816
g24
aF2.0
aa(lp2817
g26
aF1.0
aa(lp2818
g28
aF1.0
aa(lp2819
g30
aF2.0
aa(lp2820
g32
aF1.0
aa(lp2821
g34
aF160.0
aa(lp2822
g36
aF118.0
aa(lp2823
g38
aF2.9
aa(lp2824
g40
aF23.0
aa(lp2825
g42
aF2.0
aatp2826
Rp2827
sI122
g1
((lp2828
(lp2829
g4
aI1
aa(lp2830
g6
aF42.0
aa(lp2831
g8
aF1.0
aa(lp2832
g10
aF2.0
aa(lp2833
g12
aF2.0
aa(lp2834
g14
aF2.0
aa(lp2835
g16
aF2.0
aa(lp2836
g18
aF2.0
aa(lp2837
g20
aF2.0
aa(lp2838
g22
aF2.0
aa(lp2839
g24
aF1.0
aa(lp2840
g26
aF2.0
aa(lp2841
g28
aF2.0
aa(lp2842
g30
aF2.0
aa(lp2843
g32
aF1.5
aa(lp2844
g34
aF85.0
aa(lp2845
g36
aF40.0
aa(lp2846
g38
aF1.0
aa(lp2847
g40
aF1.0
aa(lp2848
g42
aF2.0
aatp2849
Rp2850
sI123
g1
((lp2851
(lp2852
g4
aI1
aa(lp2853
g6
aF37.0
aa(lp2854
g8
aF1.0
aa(lp2855
g10
aF1.0
aa(lp2856
g12
aF2.0
aa(lp2857
g14
aF1.0
aa(lp2858
g16
aF2.0
aa(lp2859
g18
aF2.0
aa(lp2860
g20
aF2.0
aa(lp2861
g22
aF2.0
aa(lp2862
g24
aF2.0
aa(lp2863
g26
aF1.0
aa(lp2864
g28
aF2.0
aa(lp2865
g30
aF2.0
aa(lp2866
g32
aF0.9
aa(lp2867
g34
aF1.0
aa(lp2868
g36
aF231.0
aa(lp2869
g38
aF4.3
aa(lp2870
g40
aF1.0
aa(lp2871
g42
aF2.0
aatp2872
Rp2873
sI124
g1
((lp2874
(lp2875
g4
aI1
aa(lp2876
g6
aF50.0
aa(lp2877
g8
aF1.0
aa(lp2878
g10
aF2.0
aa(lp2879
g12
aF2.0
aa(lp2880
g14
aF2.0
aa(lp2881
g16
aF2.0
aa(lp2882
g18
aF2.0
aa(lp2883
g20
aF2.0
aa(lp2884
g22
aF1.0
aa(lp2885
g24
aF1.0
aa(lp2886
g26
aF1.0
aa(lp2887
g28
aF2.0
aa(lp2888
g30
aF2.0
aa(lp2889
g32
aF1.0
aa(lp2890
g34
aF85.0
aa(lp2891
g36
aF75.0
aa(lp2892
g38
aF4.0
aa(lp2893
g40
aF72.0
aa(lp2894
g42
aF2.0
aatp2895
Rp2896
sI125
g1
((lp2897
(lp2898
g4
aI1
aa(lp2899
g6
aF34.0
aa(lp2900
g8
aF2.0
aa(lp2901
g10
aF2.0
aa(lp2902
g12
aF2.0
aa(lp2903
g14
aF1.0
aa(lp2904
g16
aF1.0
aa(lp2905
g18
aF1.0
aa(lp2906
g20
aF1.0
aa(lp2907
g22
aF1.0
aa(lp2908
g24
aF2.0
aa(lp2909
g26
aF1.0
aa(lp2910
g28
aF2.0
aa(lp2911
g30
aF2.0
aa(lp2912
g32
aF0.7
aa(lp2913
g34
aF70.0
aa(lp2914
g36
aF24.0
aa(lp2915
g38
aF4.1
aa(lp2916
g40
aF100.0
aa(lp2917
g42
aF2.0
aatp2918
Rp2919
sI126
g1
((lp2920
(lp2921
g4
aI1
aa(lp2922
g6
aF28.0
aa(lp2923
g8
aF1.0
aa(lp2924
g10
aF2.0
aa(lp2925
g12
aF2.0
aa(lp2926
g14
aF1.0
aa(lp2927
g16
aF1.0
aa(lp2928
g18
aF1.0
aa(lp2929
g20
aF1.0
aa(lp2930
g22
aF1.0
aa(lp2931
g24
aF2.0
aa(lp2932
g26
aF1.0
aa(lp2933
g28
aF1.0
aa(lp2934
g30
aF2.0
aa(lp2935
g32
aF1.0
aa(lp2936
g34
aF1.0
aa(lp2937
g36
aF20.0
aa(lp2938
g38
aF4.0
aa(lp2939
g40
aF1.0
aa(lp2940
g42
aF2.0
aatp2941
Rp2942
sI127
g1
((lp2943
(lp2944
g4
aI0
aa(lp2945
g6
aF50.0
aa(lp2946
g8
aF1.0
aa(lp2947
g10
aF2.0
aa(lp2948
g12
aF2.0
aa(lp2949
g14
aF1.0
aa(lp2950
g16
aF2.0
aa(lp2951
g18
aF2.0
aa(lp2952
g20
aF2.0
aa(lp2953
g22
aF1.0
aa(lp2954
g24
aF1.0
aa(lp2955
g26
aF2.0
aa(lp2956
g28
aF1.0
aa(lp2957
g30
aF1.0
aa(lp2958
g32
aF2.8
aa(lp2959
g34
aF155.0
aa(lp2960
g36
aF75.0
aa(lp2961
g38
aF2.4
aa(lp2962
g40
aF32.0
aa(lp2963
g42
aF2.0
aatp2964
Rp2965
sI128
g1
((lp2966
(lp2967
g4
aI1
aa(lp2968
g6
aF54.0
aa(lp2969
g8
aF1.0
aa(lp2970
g10
aF1.0
aa(lp2971
g12
aF2.0
aa(lp2972
g14
aF1.0
aa(lp2973
g16
aF1.0
aa(lp2974
g18
aF2.0
aa(lp2975
g20
aF2.0
aa(lp2976
g22
aF2.0
aa(lp2977
g24
aF2.0
aa(lp2978
g26
aF2.0
aa(lp2979
g28
aF1.0
aa(lp2980
g30
aF2.0
aa(lp2981
g32
aF1.2
aa(lp2982
g34
aF85.0
aa(lp2983
g36
aF92.0
aa(lp2984
g38
aF3.1
aa(lp2985
g40
aF66.0
aa(lp2986
g42
aF2.0
aatp2987
Rp2988
sI129
g1
((lp2989
(lp2990
g4
aI0
aa(lp2991
g6
aF57.0
aa(lp2992
g8
aF1.0
aa(lp2993
g10
aF1.0
aa(lp2994
g12
aF2.0
aa(lp2995
g14
aF1.0
aa(lp2996
g16
aF1.0
aa(lp2997
g18
aF2.0
aa(lp2998
g20
aF2.0
aa(lp2999
g22
aF2.0
aa(lp3000
g24
aF2.0
aa(lp3001
g26
aF1.0
aa(lp3002
g28
aF1.0
aa(lp3003
g30
aF2.0
aa(lp3004
g32
aF4.6
aa(lp3005
g34
aF82.0
aa(lp3006
g36
aF55.0
aa(lp3007
g38
aF3.3
aa(lp3008
g40
aF30.0
aa(lp3009
g42
aF2.0
aatp3010
Rp3011
sI130
g1
((lp3012
(lp3013
g4
aI1
aa(lp3014
g6
aF54.0
aa(lp3015
g8
aF1.0
aa(lp3016
g10
aF2.0
aa(lp3017
g12
aF2.0
aa(lp3018
g14
aF2.0
aa(lp3019
g16
aF2.0
aa(lp3020
g18
aF2.0
aa(lp3021
g20
aF2.0
aa(lp3022
g22
aF2.0
aa(lp3023
g24
aF2.0
aa(lp3024
g26
aF2.0
aa(lp3025
g28
aF2.0
aa(lp3026
g30
aF2.0
aa(lp3027
g32
aF1.0
aa(lp3028
g34
aF85.0
aa(lp3029
g36
aF30.0
aa(lp3030
g38
aF4.5
aa(lp3031
g40
aF0.0
aa(lp3032
g42
aF2.0
aatp3033
Rp3034
sI131
g1
((lp3035
(lp3036
g4
aI0
aa(lp3037
g6
aF31.0
aa(lp3038
g8
aF1.0
aa(lp3039
g10
aF1.0
aa(lp3040
g12
aF2.0
aa(lp3041
g14
aF1.0
aa(lp3042
g16
aF1.0
aa(lp3043
g18
aF1.0
aa(lp3044
g20
aF2.0
aa(lp3045
g22
aF2.0
aa(lp3046
g24
aF1.0
aa(lp3047
g26
aF2.0
aa(lp3048
g28
aF2.0
aa(lp3049
g30
aF2.0
aa(lp3050
g32
aF8.0
aa(lp3051
g34
aF1.0
aa(lp3052
g36
aF101.0
aa(lp3053
g38
aF2.2
aa(lp3054
g40
aF1.0
aa(lp3055
g42
aF2.0
aatp3056
Rp3057
sI132
g1
((lp3058
(lp3059
g4
aI1
aa(lp3060
g6
aF48.0
aa(lp3061
g8
aF1.0
aa(lp3062
g10
aF2.0
aa(lp3063
g12
aF2.0
aa(lp3064
g14
aF1.0
aa(lp3065
g16
aF1.0
aa(lp3066
g18
aF1.0
aa(lp3067
g20
aF2.0
aa(lp3068
g22
aF1.0
aa(lp3069
g24
aF2.0
aa(lp3070
g26
aF1.0
aa(lp3071
g28
aF2.0
aa(lp3072
g30
aF2.0
aa(lp3073
g32
aF2.0
aa(lp3074
g34
aF158.0
aa(lp3075
g36
aF278.0
aa(lp3076
g38
aF3.8
aa(lp3077
g40
aF1.0
aa(lp3078
g42
aF2.0
aatp3079
Rp3080
sI133
g1
((lp3081
(lp3082
g4
aI1
aa(lp3083
g6
aF72.0
aa(lp3084
g8
aF1.0
aa(lp3085
g10
aF2.0
aa(lp3086
g12
aF1.0
aa(lp3087
g14
aF1.0
aa(lp3088
g16
aF2.0
aa(lp3089
g18
aF2.0
aa(lp3090
g20
aF2.0
aa(lp3091
g22
aF1.0
aa(lp3092
g24
aF2.0
aa(lp3093
g26
aF2.0
aa(lp3094
g28
aF2.0
aa(lp3095
g30
aF2.0
aa(lp3096
g32
aF1.0
aa(lp3097
g34
aF115.0
aa(lp3098
g36
aF52.0
aa(lp3099
g38
aF3.4
aa(lp3100
g40
aF50.0
aa(lp3101
g42
aF2.0
aatp3102
Rp3103
sI134
g1
((lp3104
(lp3105
g4
aI0
aa(lp3106
g6
aF38.0
aa(lp3107
g8
aF1.0
aa(lp3108
g10
aF1.0
aa(lp3109
g12
aF2.0
aa(lp3110
g14
aF2.0
aa(lp3111
g16
aF2.0
aa(lp3112
g18
aF2.0
aa(lp3113
g20
aF2.0
aa(lp3114
g22
aF1.0
aa(lp3115
g24
aF2.0
aa(lp3116
g26
aF2.0
aa(lp3117
g28
aF2.0
aa(lp3118
g30
aF2.0
aa(lp3119
g32
aF0.4
aa(lp3120
g34
aF243.0
aa(lp3121
g36
aF49.0
aa(lp3122
g38
aF3.8
aa(lp3123
g40
aF90.0
aa(lp3124
g42
aF2.0
aatp3125
Rp3126
sI135
g1
((lp3127
(lp3128
g4
aI1
aa(lp3129
g6
aF25.0
aa(lp3130
g8
aF1.0
aa(lp3131
g10
aF2.0
aa(lp3132
g12
aF2.0
aa(lp3133
g14
aF1.0
aa(lp3134
g16
aF2.0
aa(lp3135
g18
aF2.0
aa(lp3136
g20
aF1.0
aa(lp3137
g22
aF1.0
aa(lp3138
g24
aF1.0
aa(lp3139
g26
aF1.0
aa(lp3140
g28
aF1.0
aa(lp3141
g30
aF1.0
aa(lp3142
g32
aF1.3
aa(lp3143
g34
aF181.0
aa(lp3144
g36
aF181.0
aa(lp3145
g38
aF4.5
aa(lp3146
g40
aF57.0
aa(lp3147
g42
aF2.0
aatp3148
Rp3149
sI136
g1
((lp3150
(lp3151
g4
aI1
aa(lp3152
g6
aF51.0
aa(lp3153
g8
aF1.0
aa(lp3154
g10
aF2.0
aa(lp3155
g12
aF2.0
aa(lp3156
g14
aF2.0
aa(lp3157
g16
aF2.0
aa(lp3158
g18
aF2.0
aa(lp3159
g20
aF1.0
aa(lp3160
g22
aF1.0
aa(lp3161
g24
aF2.0
aa(lp3162
g26
aF1.0
aa(lp3163
g28
aF2.0
aa(lp3164
g30
aF2.0
aa(lp3165
g32
aF0.8
aa(lp3166
g34
aF1.0
aa(lp3167
g36
aF33.0
aa(lp3168
g38
aF4.5
aa(lp3169
g40
aF1.0
aa(lp3170
g42
aF2.0
aatp3171
Rp3172
sI137
g1
((lp3173
(lp3174
g4
aI1
aa(lp3175
g6
aF38.0
aa(lp3176
g8
aF1.0
aa(lp3177
g10
aF2.0
aa(lp3178
g12
aF2.0
aa(lp3179
g14
aF2.0
aa(lp3180
g16
aF2.0
aa(lp3181
g18
aF2.0
aa(lp3182
g20
aF2.0
aa(lp3183
g22
aF1.0
aa(lp3184
g24
aF2.0
aa(lp3185
g26
aF1.0
aa(lp3186
g28
aF2.0
aa(lp3187
g30
aF1.0
aa(lp3188
g32
aF1.6
aa(lp3189
g34
aF130.0
aa(lp3190
g36
aF140.0
aa(lp3191
g38
aF3.5
aa(lp3192
g40
aF56.0
aa(lp3193
g42
aF2.0
aatp3194
Rp3195
sI138
g1
((lp3196
(lp3197
g4
aI0
aa(lp3198
g6
aF47.0
aa(lp3199
g8
aF1.0
aa(lp3200
g10
aF2.0
aa(lp3201
g12
aF2.0
aa(lp3202
g14
aF1.0
aa(lp3203
g16
aF1.0
aa(lp3204
g18
aF2.0
aa(lp3205
g20
aF2.0
aa(lp3206
g22
aF1.0
aa(lp3207
g24
aF2.0
aa(lp3208
g26
aF1.0
aa(lp3209
g28
aF1.0
aa(lp3210
g30
aF1.0
aa(lp3211
g32
aF1.0
aa(lp3212
g34
aF166.0
aa(lp3213
g36
aF30.0
aa(lp3214
g38
aF2.6
aa(lp3215
g40
aF31.0
aa(lp3216
g42
aF2.0
aatp3217
Rp3218
sI139
g1
((lp3219
(lp3220
g4
aI1
aa(lp3221
g6
aF45.0
aa(lp3222
g8
aF1.0
aa(lp3223
g10
aF2.0
aa(lp3224
g12
aF1.0
aa(lp3225
g14
aF2.0
aa(lp3226
g16
aF2.0
aa(lp3227
g18
aF2.0
aa(lp3228
g20
aF2.0
aa(lp3229
g22
aF2.0
aa(lp3230
g24
aF2.0
aa(lp3231
g26
aF2.0
aa(lp3232
g28
aF2.0
aa(lp3233
g30
aF2.0
aa(lp3234
g32
aF1.3
aa(lp3235
g34
aF85.0
aa(lp3236
g36
aF44.0
aa(lp3237
g38
aF4.2
aa(lp3238
g40
aF85.0
aa(lp3239
g42
aF2.0
aatp3240
Rp3241
sI140
g1
((lp3242
(lp3243
g4
aI1
aa(lp3244
g6
aF36.0
aa(lp3245
g8
aF1.0
aa(lp3246
g10
aF1.0
aa(lp3247
g12
aF2.0
aa(lp3248
g14
aF1.0
aa(lp3249
g16
aF1.0
aa(lp3250
g18
aF1.0
aa(lp3251
g20
aF1.0
aa(lp3252
g22
aF1.0
aa(lp3253
g24
aF2.0
aa(lp3254
g26
aF1.0
aa(lp3255
g28
aF2.0
aa(lp3256
g30
aF1.0
aa(lp3257
g32
aF1.7
aa(lp3258
g34
aF295.0
aa(lp3259
g36
aF60.0
aa(lp3260
g38
aF2.7
aa(lp3261
g40
aF1.0
aa(lp3262
g42
aF2.0
aatp3263
Rp3264
sI141
g1
((lp3265
(lp3266
g4
aI0
aa(lp3267
g6
aF54.0
aa(lp3268
g8
aF1.0
aa(lp3269
g10
aF1.0
aa(lp3270
g12
aF2.0
aa(lp3271
g14
aF1.0
aa(lp3272
g16
aF1.0
aa(lp3273
g18
aF2.0
aa(lp3274
g20
aF1.0
aa(lp3275
g22
aF1.0
aa(lp3276
g24
aF1.0
aa(lp3277
g26
aF2.0
aa(lp3278
g28
aF1.0
aa(lp3279
g30
aF2.0
aa(lp3280
g32
aF3.9
aa(lp3281
g34
aF120.0
aa(lp3282
g36
aF28.0
aa(lp3283
g38
aF3.5
aa(lp3284
g40
aF43.0
aa(lp3285
g42
aF2.0
aatp3286
Rp3287
sI142
g1
((lp3288
(lp3289
g4
aI1
aa(lp3290
g6
aF51.0
aa(lp3291
g8
aF1.0
aa(lp3292
g10
aF2.0
aa(lp3293
g12
aF2.0
aa(lp3294
g14
aF1.0
aa(lp3295
g16
aF2.0
aa(lp3296
g18
aF2.0
aa(lp3297
g20
aF2.0
aa(lp3298
g22
aF1.0
aa(lp3299
g24
aF1.0
aa(lp3300
g26
aF1.0
aa(lp3301
g28
aF2.0
aa(lp3302
g30
aF1.0
aa(lp3303
g32
aF1.0
aa(lp3304
g34
aF1.0
aa(lp3305
g36
aF20.0
aa(lp3306
g38
aF3.0
aa(lp3307
g40
aF63.0
aa(lp3308
g42
aF2.0
aatp3309
Rp3310
sI143
g1
((lp3311
(lp3312
g4
aI0
aa(lp3313
g6
aF49.0
aa(lp3314
g8
aF1.0
aa(lp3315
g10
aF1.0
aa(lp3316
g12
aF2.0
aa(lp3317
g14
aF1.0
aa(lp3318
g16
aF1.0
aa(lp3319
g18
aF2.0
aa(lp3320
g20
aF2.0
aa(lp3321
g22
aF2.0
aa(lp3322
g24
aF1.0
aa(lp3323
g26
aF1.0
aa(lp3324
g28
aF2.0
aa(lp3325
g30
aF2.0
aa(lp3326
g32
aF1.4
aa(lp3327
g34
aF85.0
aa(lp3328
g36
aF70.0
aa(lp3329
g38
aF3.5
aa(lp3330
g40
aF35.0
aa(lp3331
g42
aF2.0
aatp3332
Rp3333
sI144
g1
((lp3334
(lp3335
g4
aI0
aa(lp3336
g6
aF45.0
aa(lp3337
g8
aF1.0
aa(lp3338
g10
aF2.0
aa(lp3339
g12
aF2.0
aa(lp3340
g14
aF1.0
aa(lp3341
g16
aF1.0
aa(lp3342
g18
aF1.0
aa(lp3343
g20
aF2.0
aa(lp3344
g22
aF2.0
aa(lp3345
g24
aF2.0
aa(lp3346
g26
aF1.0
aa(lp3347
g28
aF1.0
aa(lp3348
g30
aF2.0
aa(lp3349
g32
aF1.9
aa(lp3350
g34
aF1.0
aa(lp3351
g36
aF114.0
aa(lp3352
g38
aF2.4
aa(lp3353
g40
aF1.0
aa(lp3354
g42
aF2.0
aatp3355
Rp3356
sI145
g1
((lp3357
(lp3358
g4
aI1
aa(lp3359
g6
aF31.0
aa(lp3360
g8
aF1.0
aa(lp3361
g10
aF1.0
aa(lp3362
g12
aF2.0
aa(lp3363
g14
aF1.0
aa(lp3364
g16
aF2.0
aa(lp3365
g18
aF2.0
aa(lp3366
g20
aF2.0
aa(lp3367
g22
aF2.0
aa(lp3368
g24
aF2.0
aa(lp3369
g26
aF2.0
aa(lp3370
g28
aF2.0
aa(lp3371
g30
aF2.0
aa(lp3372
g32
aF1.2
aa(lp3373
g34
aF75.0
aa(lp3374
g36
aF173.0
aa(lp3375
g38
aF4.2
aa(lp3376
g40
aF54.0
aa(lp3377
g42
aF2.0
aatp3378
Rp3379
sI146
g1
((lp3380
(lp3381
g4
aI0
aa(lp3382
g6
aF41.0
aa(lp3383
g8
aF1.0
aa(lp3384
g10
aF2.0
aa(lp3385
g12
aF2.0
aa(lp3386
g14
aF1.0
aa(lp3387
g16
aF2.0
aa(lp3388
g18
aF2.0
aa(lp3389
g20
aF2.0
aa(lp3390
g22
aF1.0
aa(lp3391
g24
aF1.0
aa(lp3392
g26
aF1.0
aa(lp3393
g28
aF2.0
aa(lp3394
g30
aF1.0
aa(lp3395
g32
aF4.2
aa(lp3396
g34
aF65.0
aa(lp3397
g36
aF120.0
aa(lp3398
g38
aF3.4
aa(lp3399
g40
aF1.0
aa(lp3400
g42
aF2.0
aatp3401
Rp3402
sI147
g1
((lp3403
(lp3404
g4
aI0
aa(lp3405
g6
aF70.0
aa(lp3406
g8
aF1.0
aa(lp3407
g10
aF1.0
aa(lp3408
g12
aF2.0
aa(lp3409
g14
aF1.0
aa(lp3410
g16
aF1.0
aa(lp3411
g18
aF1.0
aa(lp3412
g20
aF1.0
aa(lp3413
g22
aF1.0
aa(lp3414
g24
aF1.0
aa(lp3415
g26
aF1.0
aa(lp3416
g28
aF1.0
aa(lp3417
g30
aF1.0
aa(lp3418
g32
aF1.7
aa(lp3419
g34
aF109.0
aa(lp3420
g36
aF528.0
aa(lp3421
g38
aF2.8
aa(lp3422
g40
aF35.0
aa(lp3423
g42
aF2.0
aatp3424
Rp3425
sI148
g1
((lp3426
(lp3427
g4
aI1
aa(lp3428
g6
aF20.0
aa(lp3429
g8
aF1.0
aa(lp3430
g10
aF1.0
aa(lp3431
g12
aF2.0
aa(lp3432
g14
aF2.0
aa(lp3433
g16
aF2.0
aa(lp3434
g18
aF2.0
aa(lp3435
g20
aF2.0
aa(lp3436
g22
aF1.0
aa(lp3437
g24
aF2.0
aa(lp3438
g26
aF2.0
aa(lp3439
g28
aF2.0
aa(lp3440
g30
aF2.0
aa(lp3441
g32
aF0.9
aa(lp3442
g34
aF89.0
aa(lp3443
g36
aF152.0
aa(lp3444
g38
aF4.0
aa(lp3445
g40
aF1.0
aa(lp3446
g42
aF2.0
aatp3447
Rp3448
sI149
g1
((lp3449
(lp3450
g4
aI1
aa(lp3451
g6
aF36.0
aa(lp3452
g8
aF1.0
aa(lp3453
g10
aF2.0
aa(lp3454
g12
aF2.0
aa(lp3455
g14
aF2.0
aa(lp3456
g16
aF2.0
aa(lp3457
g18
aF2.0
aa(lp3458
g20
aF2.0
aa(lp3459
g22
aF2.0
aa(lp3460
g24
aF2.0
aa(lp3461
g26
aF2.0
aa(lp3462
g28
aF2.0
aa(lp3463
g30
aF2.0
aa(lp3464
g32
aF0.6
aa(lp3465
g34
aF120.0
aa(lp3466
g36
aF30.0
aa(lp3467
g38
aF4.0
aa(lp3468
g40
aF1.0
aa(lp3469
g42
aF2.0
aatp3470
Rp3471
sI150
g1
((lp3472
(lp3473
g4
aI0
aa(lp3474
g6
aF46.0
aa(lp3475
g8
aF1.0
aa(lp3476
g10
aF2.0
aa(lp3477
g12
aF2.0
aa(lp3478
g14
aF1.0
aa(lp3479
g16
aF1.0
aa(lp3480
g18
aF1.0
aa(lp3481
g20
aF2.0
aa(lp3482
g22
aF2.0
aa(lp3483
g24
aF2.0
aa(lp3484
g26
aF1.0
aa(lp3485
g28
aF1.0
aa(lp3486
g30
aF1.0
aa(lp3487
g32
aF7.6
aa(lp3488
g34
aF1.0
aa(lp3489
g36
aF242.0
aa(lp3490
g38
aF3.3
aa(lp3491
g40
aF50.0
aa(lp3492
g42
aF2.0
aatp3493
Rp3494
sI151
g1
((lp3495
(lp3496
g4
aI1
aa(lp3497
g6
aF44.0
aa(lp3498
g8
aF1.0
aa(lp3499
g10
aF2.0
aa(lp3500
g12
aF2.0
aa(lp3501
g14
aF1.0
aa(lp3502
g16
aF2.0
aa(lp3503
g18
aF2.0
aa(lp3504
g20
aF2.0
aa(lp3505
g22
aF1.0
aa(lp3506
g24
aF2.0
aa(lp3507
g26
aF2.0
aa(lp3508
g28
aF2.0
aa(lp3509
g30
aF2.0
aa(lp3510
g32
aF0.9
aa(lp3511
g34
aF126.0
aa(lp3512
g36
aF142.0
aa(lp3513
g38
aF4.3
aa(lp3514
g40
aF1.0
aa(lp3515
g42
aF2.0
aatp3516
Rp3517
sI152
g1
((lp3518
(lp3519
g4
aI1
aa(lp3520
g6
aF61.0
aa(lp3521
g8
aF1.0
aa(lp3522
g10
aF1.0
aa(lp3523
g12
aF2.0
aa(lp3524
g14
aF1.0
aa(lp3525
g16
aF1.0
aa(lp3526
g18
aF2.0
aa(lp3527
g20
aF1.0
aa(lp3528
g22
aF1.0
aa(lp3529
g24
aF2.0
aa(lp3530
g26
aF1.0
aa(lp3531
g28
aF2.0
aa(lp3532
g30
aF2.0
aa(lp3533
g32
aF0.8
aa(lp3534
g34
aF75.0
aa(lp3535
g36
aF20.0
aa(lp3536
g38
aF4.1
aa(lp3537
g40
aF1.0
aa(lp3538
g42
aF2.0
aatp3539
Rp3540
sI153
g1
((lp3541
(lp3542
g4
aI1
aa(lp3543
g6
aF53.0
aa(lp3544
g8
aF2.0
aa(lp3545
g10
aF1.0
aa(lp3546
g12
aF2.0
aa(lp3547
g14
aF1.0
aa(lp3548
g16
aF2.0
aa(lp3549
g18
aF2.0
aa(lp3550
g20
aF2.0
aa(lp3551
g22
aF2.0
aa(lp3552
g24
aF1.0
aa(lp3553
g26
aF1.0
aa(lp3554
g28
aF2.0
aa(lp3555
g30
aF1.0
aa(lp3556
g32
aF1.5
aa(lp3557
g34
aF81.0
aa(lp3558
g36
aF19.0
aa(lp3559
g38
aF4.1
aa(lp3560
g40
aF48.0
aa(lp3561
g42
aF2.0
aatp3562
Rp3563
sI154
g1
((lp3564
(lp3565
g4
aI0
aa(lp3566
g6
aF43.0
aa(lp3567
g8
aF1.0
aa(lp3568
g10
aF2.0
aa(lp3569
g12
aF2.0
aa(lp3570
g14
aF1.0
aa(lp3571
g16
aF2.0
aa(lp3572
g18
aF2.0
aa(lp3573
g20
aF2.0
aa(lp3574
g22
aF2.0
aa(lp3575
g24
aF1.0
aa(lp3576
g26
aF1.0
aa(lp3577
g28
aF1.0
aa(lp3578
g30
aF2.0
aa(lp3579
g32
aF1.2
aa(lp3580
g34
aF100.0
aa(lp3581
g36
aF19.0
aa(lp3582
g38
aF3.1
aa(lp3583
g40
aF42.0
aa(lp3584
g42
aF2.0
aatp3585
Rp3586
s.